(imatplotlib.font_manager
FontManager
p1
(dp2
S'afm_lookup_cache'
p3
(dp4
sS'ttflist'
p5
(lp6
ccopy_reg
_reconstructor
p7
(cmatplotlib.font_manager
FontEntry
p8
c__builtin__
object
p9
NtRp10
(dp11
S'style'
p12
S'normal'
p13
sS'name'
p14
S'cmb10'
p15
sS'weight'
p16
I400
sS'stretch'
p17
g13
sS'variant'
p18
g13
sS'fname'
p19
S'/usr/share/matplotlib/mpl-data/fonts/ttf/cmb10.ttf'
p20
sS'size'
p21
S'scalable'
p22
sbag7
(g8
g9
NtRp23
(dp24
g12
g13
sg14
S'cmex10'
p25
sg16
I400
sg17
g13
sg18
g13
sg19
S'/usr/share/matplotlib/mpl-data/fonts/ttf/cmex10.ttf'
p26
sg21
g22
sbag7
(g8
g9
NtRp27
(dp28
g12
S'italic'
p29
sg14
S'STIXNonUnicode'
p30
sg16
I400
sg17
g13
sg18
g13
sg19
S'/usr/share/matplotlib/mpl-data/fonts/ttf/STIXNonUniIta.ttf'
p31
sg21
g22
sbag7
(g8
g9
NtRp32
(dp33
g12
g13
sg14
S'STIXNonUnicode'
p34
sg16
I400
sg17
g13
sg18
g13
sg19
S'/usr/share/matplotlib/mpl-data/fonts/ttf/STIXNonUni.ttf'
p35
sg21
g22
sbag7
(g8
g9
NtRp36
(dp37
g12
g13
sg14
S'STIXSizeThreeSym'
p38
sg16
I400
sg17
g13
sg18
g13
sg19
S'/usr/share/matplotlib/mpl-data/fonts/ttf/STIXSizThreeSymReg.ttf'
p39
sg21
g22
sbag7
(g8
g9
NtRp40
(dp41
g12
g13
sg14
S'STIXSizeTwoSym'
p42
sg16
I700
sg17
g13
sg18
g13
sg19
S'/usr/share/matplotlib/mpl-data/fonts/ttf/STIXSizTwoSymBol.ttf'
p43
sg21
g22
sbag7
(g8
g9
NtRp44
(dp45
g12
g13
sg14
S'cmtt10'
p46
sg16
I400
sg17
g13
sg18
g13
sg19
S'/usr/share/matplotlib/mpl-data/fonts/ttf/cmtt10.ttf'
p47
sg21
g22
sbag7
(g8
g9
NtRp48
(dp49
g12
g13
sg14
S'STIXGeneral'
p50
sg16
I400
sg17
g13
sg18
g13
sg19
S'/usr/share/matplotlib/mpl-data/fonts/ttf/STIXGeneral.ttf'
p51
sg21
g22
sbag7
(g8
g9
NtRp52
(dp53
g12
g29
sg14
S'STIXNonUnicode'
p54
sg16
I700
sg17
g13
sg18
g13
sg19
S'/usr/share/matplotlib/mpl-data/fonts/ttf/STIXNonUniBolIta.ttf'
p55
sg21
g22
sbag7
(g8
g9
NtRp56
(dp57
g12
g13
sg14
S'STIXSizeFiveSym'
p58
sg16
I400
sg17
g13
sg18
g13
sg19
S'/usr/share/matplotlib/mpl-data/fonts/ttf/STIXSizFiveSymReg.ttf'
p59
sg21
g22
sbag7
(g8
g9
NtRp60
(dp61
g12
g13
sg14
S'STIXSizeOneSym'
p62
sg16
I700
sg17
g13
sg18
g13
sg19
S'/usr/share/matplotlib/mpl-data/fonts/ttf/STIXSizOneSymBol.ttf'
p63
sg21
g22
sbag7
(g8
g9
NtRp64
(dp65
g12
g13
sg14
S'STIXGeneral'
p66
sg16
I700
sg17
g13
sg18
g13
sg19
S'/usr/share/matplotlib/mpl-data/fonts/ttf/STIXGeneralBol.ttf'
p67
sg21
g22
sbag7
(g8
g9
NtRp68
(dp69
g12
g13
sg14
S'cmr10'
p70
sg16
I400
sg17
g13
sg18
g13
sg19
S'/usr/share/matplotlib/mpl-data/fonts/ttf/cmr10.ttf'
p71
sg21
g22
sbag7
(g8
g9
NtRp72
(dp73
g12
g13
sg14
S'STIXSizeTwoSym'
p74
sg16
I400
sg17
g13
sg18
g13
sg19
S'/usr/share/matplotlib/mpl-data/fonts/ttf/STIXSizTwoSymReg.ttf'
p75
sg21
g22
sbag7
(g8
g9
NtRp76
(dp77
g12
g13
sg14
S'STIXSizeOneSym'
p78
sg16
I400
sg17
g13
sg18
g13
sg19
S'/usr/share/matplotlib/mpl-data/fonts/ttf/STIXSizOneSymReg.ttf'
p79
sg21
g22
sbag7
(g8
g9
NtRp80
(dp81
g12
g13
sg14
S'cmsy10'
p82
sg16
I400
sg17
g13
sg18
g13
sg19
S'/usr/share/matplotlib/mpl-data/fonts/ttf/cmsy10.ttf'
p83
sg21
g22
sbag7
(g8
g9
NtRp84
(dp85
g12
g13
sg14
S'STIXSizeThreeSym'
p86
sg16
I700
sg17
g13
sg18
g13
sg19
S'/usr/share/matplotlib/mpl-data/fonts/ttf/STIXSizThreeSymBol.ttf'
p87
sg21
g22
sbag7
(g8
g9
NtRp88
(dp89
g12
g13
sg14
S'cmss10'
p90
sg16
I400
sg17
g13
sg18
g13
sg19
S'/usr/share/matplotlib/mpl-data/fonts/ttf/cmss10.ttf'
p91
sg21
g22
sbag7
(g8
g9
NtRp92
(dp93
g12
g13
sg14
S'STIXSizeFourSym'
p94
sg16
I700
sg17
g13
sg18
g13
sg19
S'/usr/share/matplotlib/mpl-data/fonts/ttf/STIXSizFourSymBol.ttf'
p95
sg21
g22
sbag7
(g8
g9
NtRp96
(dp97
g12
g29
sg14
S'STIXGeneral'
p98
sg16
I400
sg17
g13
sg18
g13
sg19
S'/usr/share/matplotlib/mpl-data/fonts/ttf/STIXGeneralItalic.ttf'
p99
sg21
g22
sbag7
(g8
g9
NtRp100
(dp101
g12
g13
sg14
S'cmmi10'
p102
sg16
I400
sg17
g13
sg18
g13
sg19
S'/usr/share/matplotlib/mpl-data/fonts/ttf/cmmi10.ttf'
p103
sg21
g22
sbag7
(g8
g9
NtRp104
(dp105
g12
g13
sg14
S'STIXNonUnicode'
p106
sg16
I700
sg17
g13
sg18
g13
sg19
S'/usr/share/matplotlib/mpl-data/fonts/ttf/STIXNonUniBol.ttf'
p107
sg21
g22
sbag7
(g8
g9
NtRp108
(dp109
g12
g29
sg14
S'STIXGeneral'
p110
sg16
I700
sg17
g13
sg18
g13
sg19
S'/usr/share/matplotlib/mpl-data/fonts/ttf/STIXGeneralBolIta.ttf'
p111
sg21
g22
sbag7
(g8
g9
NtRp112
(dp113
g12
g13
sg14
S'STIXSizeFourSym'
p114
sg16
I400
sg17
g13
sg18
g13
sg19
S'/usr/share/matplotlib/mpl-data/fonts/ttf/STIXSizFourSymReg.ttf'
p115
sg21
g22
sbag7
(g8
g9
NtRp116
(dp117
g12
g13
sg14
S'KacstTitle'
p118
sg16
I400
sg17
g13
sg18
g13
sg19
S'/usr/share/fonts/truetype/kacst/KacstTitle.ttf'
p119
sg21
g22
sbag7
(g8
g9
NtRp120
(dp121
g12
g29
sg14
S'Latin Modern Roman'
p122
sg16
I500
sg17
g13
sg18
g13
sg19
S'/usr/share/texmf/fonts/opentype/public/lm/lmroman8-italic.otf'
p123
sg21
g22
sbag7
(g8
g9
NtRp124
(dp125
g12
g13
sg14
S'Latin Modern Mono Caps'
p126
sg16
I400
sg17
g13
sg18
g13
sg19
S'/usr/share/texmf/fonts/opentype/public/lm/lmmonocaps10-regular.otf'
p127
sg21
g22
sbag7
(g8
g9
NtRp128
(dp129
g12
g13
sg14
S'KacstScreen'
p130
sg16
I400
sg17
g13
sg18
g13
sg19
S'/usr/share/fonts/truetype/kacst/KacstScreen.ttf'
p131
sg21
g22
sbag7
(g8
g9
NtRp132
(dp133
g12
g13
sg14
S'Droid Sans Ethiopic'
p134
sg16
I700
sg17
g13
sg18
g13
sg19
S'/usr/share/fonts/truetype/droid/DroidSansEthiopic-Bold.ttf'
p135
sg21
g22
sbag7
(g8
g9
NtRp136
(dp137
g12
S'oblique'
p138
sg14
S'Norasi'
p139
sg16
I400
sg17
g13
sg18
g13
sg19
S'/usr/share/fonts/truetype/tlwg/Norasi-Oblique.ttf'
p140
sg21
g22
sbag7
(g8
g9
NtRp141
(dp142
g12
g29
sg14
S'Latin Modern Roman'
p143
sg16
I500
sg17
g13
sg18
g13
sg19
S'/usr/share/texmf/fonts/opentype/public/lm/lmroman10-italic.otf'
p144
sg21
g22
sbag7
(g8
g9
NtRp145
(dp146
g12
g13
sg14
S'Black Oak '
p147
sg16
I900
sg17
g13
sg18
g13
sg19
S'/usr/share/fonts/truetype/Black Oak.ttf'
p148
sg21
g22
sbag7
(g8
g9
NtRp149
(dp150
g12
g13
sg14
S'Plasma Drip BRK'
p151
sg16
I400
sg17
g13
sg18
g13
sg19
S'/usr/share/fonts/truetype/plasdrip.ttf'
p152
sg21
g22
sbag7
(g8
g9
NtRp153
(dp154
g12
g13
sg14
S'TakaoPGothic'
p155
sg16
I400
sg17
g13
sg18
g13
sg19
S'/usr/share/fonts/truetype/fonts-japanese-gothic.ttf'
p156
sg21
g22
sbag7
(g8
g9
NtRp157
(dp158
g12
g13
sg14
S'Liberation Serif'
p159
sg16
I400
sg17
g13
sg18
g13
sg19
S'/usr/share/fonts/truetype/ttf-liberation/LiberationSerif-Regular.ttf'
p160
sg21
g22
sbag7
(g8
g9
NtRp161
(dp162
g12
g13
sg14
S'UnDotum'
p163
sg16
I400
sg17
g13
sg18
g13
sg19
S'/usr/share/fonts/truetype/unfonts-core/UnDotum.ttf'
p164
sg21
g22
sbag7
(g8
g9
NtRp165
(dp166
g12
g138
sg14
S'Waree'
p167
sg16
I400
sg17
g13
sg18
g13
sg19
S'/usr/share/fonts/truetype/tlwg/Waree-Oblique.ttf'
p168
sg21
g22
sbag7
(g8
g9
NtRp169
(dp170
g12
g29
sg14
S'TeX Gyre Termes'
p171
sg16
I700
sg17
g13
sg18
g13
sg19
S'/usr/share/texmf/fonts/opentype/public/tex-gyre/texgyretermes-bolditalic.otf'
p172
sg21
g22
sbag7
(g8
g9
NtRp173
(dp174
g12
g29
sg14
S'TeX Gyre Pagella'
p175
sg16
I400
sg17
g13
sg18
g13
sg19
S'/usr/share/texmf/fonts/opentype/public/tex-gyre/texgyrepagella-italic.otf'
p176
sg21
g22
sbag7
(g8
g9
NtRp177
(dp178
g12
g29
sg14
S'Georgia'
p179
sg16
I700
sg17
g13
sg18
g13
sg19
S'/usr/share/fonts/truetype/msttcorefonts/Georgia_Bold_Italic.ttf'
p180
sg21
g22
sbag7
(g8
g9
NtRp181
(dp182
g12
g13
sg14
S'DejaVu Serif'
p183
sg16
I700
sg17
S'condensed'
p184
sg18
g13
sg19
S'/usr/share/fonts/truetype/dejavu/DejaVuSerifCondensed-Bold.ttf'
p185
sg21
g22
sbag7
(g8
g9
NtRp186
(dp187
g12
g138
sg14
S'DejaVu Sans'
p188
sg16
I400
sg17
g13
sg18
g13
sg19
S'/usr/share/fonts/truetype/ttf-dejavu/DejaVuSans-Oblique.ttf'
p189
sg21
g22
sbag7
(g8
g9
NtRp190
(dp191
g12
g138
sg14
S'DejaVu Sans'
p192
sg16
I700
sg17
g13
sg18
g13
sg19
S'/usr/share/fonts/truetype/ttf-dejavu/DejaVuSans-BoldOblique.ttf'
p193
sg21
g22
sbag7
(g8
g9
NtRp194
(dp195
g12
g13
sg14
S'Latin Modern Roman'
p196
sg16
I400
sg17
g13
sg18
g13
sg19
S'/usr/share/texmf/fonts/opentype/public/lm/lmroman12-regular.otf'
p197
sg21
g22
sbag7
(g8
g9
NtRp198
(dp199
g12
g13
sg14
S'Tlwg Typist'
p200
sg16
I400
sg17
g13
sg18
g13
sg19
S'/usr/share/fonts/truetype/tlwg/TlwgTypist.ttf'
p201
sg21
g22
sbag7
(g8
g9
NtRp202
(dp203
g12
g13
sg14
S'NanumGothic'
p204
sg16
I400
sg17
g13
sg18
g13
sg19
S'/usr/share/fonts/truetype/nanum/NanumGothic.ttf'
p205
sg21
g22
sbag7
(g8
g9
NtRp206
(dp207
g12
g13
sg14
S'Impact'
p208
sg16
I400
sg17
g13
sg18
g13
sg19
S'/usr/share/fonts/truetype/msttcorefonts/Impact.ttf'
p209
sg21
g22
sbag7
(g8
g9
NtRp210
(dp211
g12
g13
sg14
S'Droid Arabic Naskh'
p212
sg16
I400
sg17
g13
sg18
g13
sg19
S'/usr/share/fonts/truetype/droid/DroidNaskh-Regular.ttf'
p213
sg21
g22
sbag7
(g8
g9
NtRp214
(dp215
g12
g13
sg14
S'Andale Mono'
p216
sg16
I400
sg17
g13
sg18
g13
sg19
S'/usr/share/fonts/truetype/msttcorefonts/andalemo.ttf'
p217
sg21
g22
sbag7
(g8
g9
NtRp218
(dp219
g12
g29
sg14
S'Arial'
p220
sg16
I700
sg17
g13
sg18
g13
sg19
S'/usr/share/fonts/truetype/msttcorefonts/arialbi.ttf'
p221
sg21
g22
sbag7
(g8
g9
NtRp222
(dp223
g12
g29
sg14
S'Liberation Sans'
p224
sg16
I400
sg17
g13
sg18
g13
sg19
S'/usr/share/fonts/truetype/liberation/LiberationSans-Italic.ttf'
p225
sg21
g22
sbag7
(g8
g9
NtRp226
(dp227
g12
g138
sg14
S'DejaVu Sans Mono'
p228
sg16
I400
sg17
g13
sg18
g13
sg19
S'/usr/share/fonts/truetype/dejavu/DejaVuSansMono-Oblique.ttf'
p229
sg21
g22
sbag7
(g8
g9
NtRp230
(dp231
g12
g13
sg14
S'Latin Modern Roman'
p232
sg16
I700
sg17
g13
sg18
g13
sg19
S'/usr/share/texmf/fonts/opentype/public/lm/lmroman12-bold.otf'
p233
sg21
g22
sbag7
(g8
g9
NtRp234
(dp235
g12
g13
sg14
S'UnBatang'
p236
sg16
I400
sg17
g13
sg18
g13
sg19
S'/usr/share/fonts/truetype/unfonts-core/UnBatang.ttf'
p237
sg21
g22
sbag7
(g8
g9
NtRp238
(dp239
g12
g13
sg14
S'TeX Gyre Cursor'
p240
sg16
I400
sg17
g13
sg18
g13
sg19
S'/usr/share/texmf/fonts/opentype/public/tex-gyre/texgyrecursor-regular.otf'
p241
sg21
g22
sbag7
(g8
g9
NtRp242
(dp243
g12
g13
sg14
S'Courier New'
p244
sg16
I700
sg17
g13
sg18
g13
sg19
S'/usr/share/fonts/truetype/msttcorefonts/courbd.ttf'
p245
sg21
g22
sbag7
(g8
g9
NtRp246
(dp247
g12
g13
sg14
S'Trebuchet MS'
p248
sg16
I400
sg17
g13
sg18
g13
sg19
S'/usr/share/fonts/truetype/msttcorefonts/Trebuchet_MS.ttf'
p249
sg21
g22
sbag7
(g8
g9
NtRp250
(dp251
g12
g13
sg14
S'Droid Sans Hebrew'
p252
sg16
I700
sg17
g13
sg18
g13
sg19
S'/usr/share/fonts/truetype/droid/DroidSansHebrew-Bold.ttf'
p253
sg21
g22
sbag7
(g8
g9
NtRp254
(dp255
g12
g29
sg14
S'DejaVu Serif'
p256
sg16
I700
sg17
g13
sg18
g13
sg19
S'/usr/share/fonts/truetype/dejavu/DejaVuSerif-BoldItalic.ttf'
p257
sg21
g22
sbag7
(g8
g9
NtRp258
(dp259
g12
g13
sg14
S'Ubuntu Mono'
p260
sg16
I400
sg17
g13
sg18
g13
sg19
S'/usr/share/fonts/truetype/ubuntu-font-family/UbuntuMono-R.ttf'
p261
sg21
g22
sbag7
(g8
g9
NtRp262
(dp263
g12
g29
sg14
S'Trebuchet MS'
p264
sg16
I400
sg17
g13
sg18
g13
sg19
S'/usr/share/fonts/truetype/msttcorefonts/Trebuchet_MS_Italic.ttf'
p265
sg21
g22
sbag7
(g8
g9
NtRp266
(dp267
g12
g13
sg14
S'Liberation Serif'
p268
sg16
I700
sg17
g13
sg18
g13
sg19
S'/usr/share/fonts/truetype/ttf-liberation/LiberationSerif-Bold.ttf'
p269
sg21
g22
sbag7
(g8
g9
NtRp270
(dp271
g12
g13
sg14
S'UnDinaru'
p272
sg16
I400
sg17
g13
sg18
g13
sg19
S'/usr/share/fonts/truetype/unfonts-core/UnDinaru.ttf'
p273
sg21
g22
sbag7
(g8
g9
NtRp274
(dp275
g12
g13
sg14
S'Droid Serif'
p276
sg16
I400
sg17
g13
sg18
g13
sg19
S'/usr/share/fonts/truetype/droid/DroidSerif-Regular.ttf'
p277
sg21
g22
sbag7
(g8
g9
NtRp278
(dp279
g12
g13
sg14
S'Latin Modern Roman'
p280
sg16
I400
sg17
g13
sg18
g13
sg19
S'/usr/share/texmf/fonts/opentype/public/lm/lmroman5-regular.otf'
p281
sg21
g22
sbag7
(g8
g9
NtRp282
(dp283
g12
g13
sg14
S'Arial'
p284
sg16
I400
sg17
g13
sg18
g13
sg19
S'/usr/share/fonts/truetype/msttcorefonts/Arial.ttf'
p285
sg21
g22
sbag7
(g8
g9
NtRp286
(dp287
g12
g13
sg14
S'Times New Roman'
p288
sg16
I500
sg17
g13
sg18
g13
sg19
S'/usr/share/fonts/truetype/msttcorefonts/times.ttf'
p289
sg21
g22
sbag7
(g8
g9
NtRp290
(dp291
g12
g13
sg14
S'UnGraphic'
p292
sg16
I700
sg17
g13
sg18
g13
sg19
S'/usr/share/fonts/truetype/unfonts-core/UnGraphicBold.ttf'
p293
sg21
g22
sbag7
(g8
g9
NtRp294
(dp295
g12
g29
sg14
S'Latin Modern Mono'
p296
sg16
I400
sg17
g13
sg18
g13
sg19
S'/usr/share/texmf/fonts/opentype/public/lm/lmmono10-italic.otf'
p297
sg21
g22
sbag7
(g8
g9
NtRp298
(dp299
g12
g13
sg14
S'KacstNaskh'
p300
sg16
I400
sg17
g13
sg18
g13
sg19
S'/usr/share/fonts/truetype/kacst/KacstNaskh.ttf'
p301
sg21
g22
sbag7
(g8
g9
NtRp302
(dp303
g12
g13
sg14
S'Trebuchet MS'
p304
sg16
I400
sg17
g13
sg18
g13
sg19
S'/usr/share/fonts/truetype/msttcorefonts/trebuc.ttf'
p305
sg21
g22
sbag7
(g8
g9
NtRp306
(dp307
g12
g29
sg14
S'Kinnari'
p308
sg16
I700
sg17
g13
sg18
g13
sg19
S'/usr/share/fonts/truetype/tlwg/Kinnari-BoldItalic.ttf'
p309
sg21
g22
sbag7
(g8
g9
NtRp310
(dp311
g12
g13
sg14
S'Sawasdee'
p312
sg16
I400
sg17
g13
sg18
g13
sg19
S'/usr/share/fonts/truetype/tlwg/Sawasdee.ttf'
p313
sg21
g22
sbag7
(g8
g9
NtRp314
(dp315
g12
g138
sg14
S'DejaVu Sans Mono'
p316
sg16
I700
sg17
g13
sg18
g13
sg19
S'/usr/share/fonts/truetype/dejavu/DejaVuSansMono-BoldOblique.ttf'
p317
sg21
g22
sbag7
(g8
g9
NtRp318
(dp319
g12
g13
sg14
S'UnDinaru'
p320
sg16
I700
sg17
g13
sg18
g13
sg19
S'/usr/share/fonts/truetype/unfonts-core/UnDinaruBold.ttf'
p321
sg21
g22
sbag7
(g8
g9
NtRp322
(dp323
g12
g13
sg14
S'FreeSans'
p324
sg16
I700
sg17
g13
sg18
g13
sg19
S'/usr/share/fonts/truetype/freefont/FreeSansBold.ttf'
p325
sg21
g22
sbag7
(g8
g9
NtRp326
(dp327
g12
g13
sg14
S'TeX Gyre Heros Cn'
p328
sg16
I400
sg17
g13
sg18
g13
sg19
S'/usr/share/texmf/fonts/opentype/public/tex-gyre/texgyreheroscn-regular.otf'
p329
sg21
g22
sbag7
(g8
g9
NtRp330
(dp331
g12
g13
sg14
S'Latin Modern Mono'
p332
sg16
I400
sg17
g13
sg18
g13
sg19
S'/usr/share/texmf/fonts/opentype/public/lm/lmmono8-regular.otf'
p333
sg21
g22
sbag7
(g8
g9
NtRp334
(dp335
g12
g13
sg14
S'Purisa'
p336
sg16
I700
sg17
g13
sg18
g13
sg19
S'/usr/share/fonts/truetype/tlwg/Purisa-Bold.ttf'
p337
sg21
g22
sbag7
(g8
g9
NtRp338
(dp339
g12
g13
sg14
S'Tlwg Typist'
p340
sg16
I700
sg17
g13
sg18
g13
sg19
S'/usr/share/fonts/truetype/tlwg/TlwgTypist-Bold.ttf'
p341
sg21
g22
sbag7
(g8
g9
NtRp342
(dp343
g12
g138
sg14
S'Latin Modern Mono Prop'
p344
sg16
I400
sg17
g13
sg18
g13
sg19
S'/usr/share/texmf/fonts/opentype/public/lm/lmmonoprop10-oblique.otf'
p345
sg21
g22
sbag7
(g8
g9
NtRp346
(dp347
g12
g13
sg14
S'KacstPoster'
p348
sg16
I400
sg17
g13
sg18
g13
sg19
S'/usr/share/fonts/truetype/kacst/KacstPoster.ttf'
p349
sg21
g22
sbag7
(g8
g9
NtRp350
(dp351
g12
g13
sg14
S'Purisa'
p352
sg16
I400
sg17
g13
sg18
g13
sg19
S'/usr/share/fonts/truetype/tlwg/Purisa.ttf'
p353
sg21
g22
sbag7
(g8
g9
NtRp354
(dp355
g12
g13
sg14
S'Latin Modern Roman Dunhill'
p356
sg16
I400
sg17
g13
sg18
g13
sg19
S'/usr/share/texmf/fonts/opentype/public/lm/lmromandunh10-regular.otf'
p357
sg21
g22
sbag7
(g8
g9
NtRp358
(dp359
g12
g29
sg14
S'Georgia'
p360
sg16
I400
sg17
g13
sg18
g13
sg19
S'/usr/share/fonts/truetype/msttcorefonts/Georgia_Italic.ttf'
p361
sg21
g22
sbag7
(g8
g9
NtRp362
(dp363
g12
g29
sg14
S'Ubuntu'
p364
sg16
I200
sg17
g13
sg18
g13
sg19
S'/usr/share/fonts/truetype/ubuntu-font-family/Ubuntu-LI.ttf'
p365
sg21
g22
sbag7
(g8
g9
NtRp366
(dp367
g12
g13
sg14
S'Droid Sans Mono'
p368
sg16
I400
sg17
g13
sg18
g13
sg19
S'/usr/share/fonts/truetype/droid/DroidSansMono.ttf'
p369
sg21
g22
sbag7
(g8
g9
NtRp370
(dp371
g12
g138
sg14
S'Umpush'
p372
sg16
I400
sg17
g13
sg18
g13
sg19
S'/usr/share/fonts/truetype/tlwg/Umpush-Oblique.ttf'
p373
sg21
g22
sbag7
(g8
g9
NtRp374
(dp375
g12
g13
sg14
S'NanumGothic'
p376
sg16
I700
sg17
g13
sg18
g13
sg19
S'/usr/share/fonts/truetype/nanum/NanumGothicBold.ttf'
p377
sg21
g22
sbag7
(g8
g9
NtRp378
(dp379
g12
g29
sg14
S'Liberation Mono'
p380
sg16
I700
sg17
g13
sg18
g13
sg19
S'/usr/share/fonts/truetype/liberation/LiberationMono-BoldItalic.ttf'
p381
sg21
g22
sbag7
(g8
g9
NtRp382
(dp383
g12
g13
sg14
S'Arcanum'
p384
sg16
I700
sg17
g13
sg18
g13
sg19
S'/usr/share/fonts/truetype/arcanum_b.ttf'
p385
sg21
g22
sbag7
(g8
g9
NtRp386
(dp387
g12
g29
sg14
S'DejaVu Serif'
p388
sg16
I700
sg17
g184
sg18
g13
sg19
S'/usr/share/fonts/truetype/ttf-dejavu/DejaVuSerifCondensed-BoldItalic.ttf'
p389
sg21
g22
sbag7
(g8
g9
NtRp390
(dp391
g12
g13
sg14
S'Ubuntu Mono'
p392
sg16
I700
sg17
g13
sg18
g13
sg19
S'/usr/share/fonts/truetype/ubuntu-font-family/UbuntuMono-B.ttf'
p393
sg21
g22
sbag7
(g8
g9
NtRp394
(dp395
g12
g13
sg14
S'TeX Gyre Bonum'
p396
sg16
I700
sg17
g13
sg18
g13
sg19
S'/usr/share/texmf/fonts/opentype/public/tex-gyre/texgyrebonum-bold.otf'
p397
sg21
g22
sbag7
(g8
g9
NtRp398
(dp399
g12
g29
sg14
S'Norasi'
p400
sg16
I400
sg17
g13
sg18
g13
sg19
S'/usr/share/fonts/truetype/tlwg/Norasi-Italic.ttf'
p401
sg21
g22
sbag7
(g8
g9
NtRp402
(dp403
g12
g13
sg14
S'Droid Sans Fallback'
p404
sg16
I400
sg17
g13
sg18
g13
sg19
S'/usr/share/fonts/truetype/droid/DroidSansFallbackFull.ttf'
p405
sg21
g22
sbag7
(g8
g9
NtRp406
(dp407
g12
g13
sg14
S'Khmer OS System'
p408
sg16
I400
sg17
g13
sg18
g13
sg19
S'/usr/share/fonts/truetype/ttf-khmeros-core/KhmerOSsys.ttf'
p409
sg21
g22
sbag7
(g8
g9
NtRp410
(dp411
g12
g138
sg14
S'Tlwg Typist'
p412
sg16
I400
sg17
g13
sg18
g13
sg19
S'/usr/share/fonts/truetype/tlwg/TlwgTypist-Oblique.ttf'
p413
sg21
g22
sbag7
(g8
g9
NtRp414
(dp415
g12
g13
sg14
S'Norasi'
p416
sg16
I400
sg17
g13
sg18
g13
sg19
S'/usr/share/fonts/truetype/tlwg/Norasi.ttf'
p417
sg21
g22
sbag7
(g8
g9
NtRp418
(dp419
g12
g13
sg14
S'DejaVu Serif'
p420
sg16
I400
sg17
g13
sg18
g13
sg19
S'/usr/share/fonts/truetype/dejavu/DejaVuSerif.ttf'
p421
sg21
g22
sbag7
(g8
g9
NtRp422
(dp423
g12
g29
sg14
S'Latin Modern Roman'
p424
sg16
I500
sg17
g13
sg18
g13
sg19
S'/usr/share/texmf/fonts/opentype/public/lm/lmroman12-italic.otf'
p425
sg21
g22
sbag7
(g8
g9
NtRp426
(dp427
g12
g13
sg14
S'Mukti Narrow'
p428
sg16
I700
sg17
g13
sg18
g13
sg19
S'/usr/share/fonts/truetype/ttf-indic-fonts-core/MuktiNarrowBold.ttf'
p429
sg21
g22
sbag7
(g8
g9
NtRp430
(dp431
g12
g13
sg14
S'Verdana'
p432
sg16
I700
sg17
g13
sg18
g13
sg19
S'/usr/share/fonts/truetype/msttcorefonts/verdanab.ttf'
p433
sg21
g22
sbag7
(g8
g9
NtRp434
(dp435
g12
g13
sg14
S'Latin Modern Sans'
p436
sg16
I400
sg17
g13
sg18
g13
sg19
S'/usr/share/texmf/fonts/opentype/public/lm/lmsans12-regular.otf'
p437
sg21
g22
sbag7
(g8
g9
NtRp438
(dp439
g12
g13
sg14
S'DejaVu Sans'
p440
sg16
I700
sg17
g13
sg18
g13
sg19
S'/usr/share/fonts/truetype/dejavu/DejaVuSans-Bold.ttf'
p441
sg21
g22
sbag7
(g8
g9
NtRp442
(dp443
g12
g29
sg14
S'Ubuntu'
p444
sg16
I400
sg17
g13
sg18
g13
sg19
S'/usr/share/fonts/truetype/ubuntu-font-family/Ubuntu-RI.ttf'
p445
sg21
g22
sbag7
(g8
g9
NtRp446
(dp447
g12
g13
sg14
S'NanumBarunGothic'
p448
sg16
I400
sg17
g13
sg18
g13
sg19
S'/usr/share/fonts/truetype/nanum/NanumBarunGothic.ttf'
p449
sg21
g22
sbag7
(g8
g9
NtRp450
(dp451
g12
g29
sg14
S'Latin Modern Roman'
p452
sg16
I500
sg17
g13
sg18
g13
sg19
S'/usr/share/texmf/fonts/opentype/public/lm/lmroman7-italic.otf'
p453
sg21
g22
sbag7
(g8
g9
NtRp454
(dp455
g12
g13
sg14
S'UnDinaru'
p456
sg16
I200
sg17
g13
sg18
g13
sg19
S'/usr/share/fonts/truetype/unfonts-core/UnDinaruLight.ttf'
p457
sg21
g22
sbag7
(g8
g9
NtRp458
(dp459
g12
g13
sg14
S'Latin Modern Math'
p460
sg16
I400
sg17
g13
sg18
g13
sg19
S'/usr/share/texmf/fonts/opentype/public/lm-math/latinmodernmath-regular.otf'
p461
sg21
g22
sbag7
(g8
g9
NtRp462
(dp463
g12
g13
sg14
S'Arcanum'
p464
sg16
I400
sg17
g13
sg18
g13
sg19
S'/usr/share/fonts/truetype/arcanum.ttf'
p465
sg21
g22
sbag7
(g8
g9
NtRp466
(dp467
g12
g29
sg14
S'Latin Modern Roman'
p468
sg16
I500
sg17
g13
sg18
g13
sg19
S'/usr/share/texmf/fonts/opentype/public/lm/lmroman9-italic.otf'
p469
sg21
g22
sbag7
(g8
g9
NtRp470
(dp471
g12
g13
sg14
S'Beurk'
p472
sg16
I400
sg17
g13
sg18
g13
sg19
S'/usr/share/fonts/truetype/Beurk___.ttf'
p473
sg21
g22
sbag7
(g8
g9
NtRp474
(dp475
g12
g13
sg14
S'Lohit Tamil'
p476
sg16
I400
sg17
g13
sg18
g13
sg19
S'/usr/share/fonts/truetype/ttf-indic-fonts-core/lohit_ta.ttf'
p477
sg21
g22
sbag7
(g8
g9
NtRp478
(dp479
g12
g13
sg14
S'Kinnari'
p480
sg16
I400
sg17
g13
sg18
g13
sg19
S'/usr/share/fonts/truetype/tlwg/Kinnari.ttf'
p481
sg21
g22
sbag7
(g8
g9
NtRp482
(dp483
g12
g29
sg14
S'Ubuntu Mono'
p484
sg16
I700
sg17
g13
sg18
g13
sg19
S'/usr/share/fonts/truetype/ubuntu-font-family/UbuntuMono-BI.ttf'
p485
sg21
g22
sbag7
(g8
g9
NtRp486
(dp487
g12
g13
sg14
S'Times New Roman'
p488
sg16
I700
sg17
g13
sg18
g13
sg19
S'/usr/share/fonts/truetype/msttcorefonts/timesbd.ttf'
p489
sg21
g22
sbag7
(g8
g9
NtRp490
(dp491
g12
g13
sg14
S'TeX Gyre Pagella'
p492
sg16
I400
sg17
g13
sg18
g13
sg19
S'/usr/share/texmf/fonts/opentype/public/tex-gyre/texgyrepagella-regular.otf'
p493
sg21
g22
sbag7
(g8
g9
NtRp494
(dp495
g12
g13
sg14
S'Trebuchet MS'
p496
sg16
I700
sg17
g13
sg18
g13
sg19
S'/usr/share/fonts/truetype/msttcorefonts/Trebuchet_MS_Bold.ttf'
p497
sg21
g22
sbag7
(g8
g9
NtRp498
(dp499
g12
g13
sg14
S'Latin Modern Roman'
p500
sg16
I700
sg17
g13
sg18
g13
sg19
S'/usr/share/texmf/fonts/opentype/public/lm/lmroman8-bold.otf'
p501
sg21
g22
sbag7
(g8
g9
NtRp502
(dp503
g12
g13
sg14
S'Latin Modern Mono'
p504
sg16
I400
sg17
g13
sg18
g13
sg19
S'/usr/share/texmf/fonts/opentype/public/lm/lmmono10-regular.otf'
p505
sg21
g22
sbag7
(g8
g9
NtRp506
(dp507
g12
g13
sg14
S'TlwgMono'
p508
sg16
I400
sg17
g13
sg18
g13
sg19
S'/usr/share/fonts/truetype/tlwg/TlwgMono.ttf'
p509
sg21
g22
sbag7
(g8
g9
NtRp510
(dp511
g12
g13
sg14
S'Latin Modern Roman Caps'
p512
sg16
I400
sg17
g13
sg18
g13
sg19
S'/usr/share/texmf/fonts/opentype/public/lm/lmromancaps10-regular.otf'
p513
sg21
g22
sbag7
(g8
g9
NtRp514
(dp515
g12
g13
sg14
S'Arial'
p516
sg16
I700
sg17
g13
sg18
g13
sg19
S'/usr/share/fonts/truetype/msttcorefonts/Arial_Bold.ttf'
p517
sg21
g22
sbag7
(g8
g9
NtRp518
(dp519
g12
g29
sg14
S'Times New Roman'
p520
sg16
I700
sg17
g13
sg18
g13
sg19
S'/usr/share/fonts/truetype/msttcorefonts/timesbi.ttf'
p521
sg21
g22
sbag7
(g8
g9
NtRp522
(dp523
g12
g138
sg14
S'Purisa'
p524
sg16
I400
sg17
g13
sg18
g13
sg19
S'/usr/share/fonts/truetype/tlwg/Purisa-Oblique.ttf'
p525
sg21
g22
sbag7
(g8
g9
NtRp526
(dp527
g12
g29
sg14
S'Kinnari'
p528
sg16
I400
sg17
g13
sg18
g13
sg19
S'/usr/share/fonts/truetype/tlwg/Kinnari-Italic.ttf'
p529
sg21
g22
sbag7
(g8
g9
NtRp530
(dp531
g12
g13
sg14
S'DejaVu Serif'
p532
sg16
I400
sg17
g184
sg18
g13
sg19
S'/usr/share/fonts/truetype/ttf-dejavu/DejaVuSerifCondensed.ttf'
p533
sg21
g22
sbag7
(g8
g9
NtRp534
(dp535
g12
g13
sg14
S'FreeMono'
p536
sg16
I700
sg17
g13
sg18
g13
sg19
S'/usr/share/fonts/truetype/freefont/FreeMonoBold.ttf'
p537
sg21
g22
sbag7
(g8
g9
NtRp538
(dp539
g12
g13
sg14
S'Impact'
p540
sg16
I400
sg17
g13
sg18
g13
sg19
S'/usr/share/fonts/truetype/msttcorefonts/impact.ttf'
p541
sg21
g22
sbag7
(g8
g9
NtRp542
(dp543
g12
g29
sg14
S'Ubuntu Mono'
p544
sg16
I400
sg17
g13
sg18
g13
sg19
S'/usr/share/fonts/truetype/ubuntu-font-family/UbuntuMono-RI.ttf'
p545
sg21
g22
sbag7
(g8
g9
NtRp546
(dp547
g12
g13
sg14
S'DejaVu Sans'
p548
sg16
I700
sg17
g184
sg18
g13
sg19
S'/usr/share/fonts/truetype/dejavu/DejaVuSansCondensed-Bold.ttf'
p549
sg21
g22
sbag7
(g8
g9
NtRp550
(dp551
g12
g13
sg14
S'TeX Gyre Heros Cn'
p552
sg16
I700
sg17
g13
sg18
g13
sg19
S'/usr/share/texmf/fonts/opentype/public/tex-gyre/texgyreheroscn-bold.otf'
p553
sg21
g22
sbag7
(g8
g9
NtRp554
(dp555
g12
g138
sg14
S'Latin Modern Mono Prop Light'
p556
sg16
I700
sg17
g13
sg18
g13
sg19
S'/usr/share/texmf/fonts/opentype/public/lm/lmmonoproplt10-boldoblique.otf'
p557
sg21
g22
sbag7
(g8
g9
NtRp558
(dp559
g12
g13
sg14
S'Ubuntu'
p560
sg16
I500
sg17
g13
sg18
g13
sg19
S'/usr/share/fonts/truetype/ubuntu-font-family/Ubuntu-M.ttf'
p561
sg21
g22
sbag7
(g8
g9
NtRp562
(dp563
g12
g29
sg14
S'Arcanum'
p564
sg16
I400
sg17
g13
sg18
g13
sg19
S'/usr/share/fonts/truetype/arcanum_i.ttf'
p565
sg21
g22
sbag7
(g8
g9
NtRp566
(dp567
g12
g13
sg14
S'Garuda'
p568
sg16
I700
sg17
g13
sg18
g13
sg19
S'/usr/share/fonts/truetype/tlwg/Garuda-Bold.ttf'
p569
sg21
g22
sbag7
(g8
g9
NtRp570
(dp571
g12
g13
sg14
S'KacstLetter'
p572
sg16
I400
sg17
g13
sg18
g13
sg19
S'/usr/share/fonts/truetype/kacst/KacstLetter.ttf'
p573
sg21
g22
sbag7
(g8
g9
NtRp574
(dp575
g12
g13
sg14
S'LeviBrush'
p576
sg16
I400
sg17
g13
sg18
g13
sg19
S'/usr/share/fonts/truetype/LEVIBRUSH.TTF'
p577
sg21
g22
sbag7
(g8
g9
NtRp578
(dp579
g12
g29
sg14
S'Verdana'
p580
sg16
I700
sg17
g13
sg18
g13
sg19
S'/usr/share/fonts/truetype/msttcorefonts/verdanaz.ttf'
p581
sg21
g22
sbag7
(g8
g9
NtRp582
(dp583
g12
g29
sg14
S'Ubuntu'
p584
sg16
I700
sg17
g13
sg18
g13
sg19
S'/usr/share/fonts/truetype/ubuntu-font-family/Ubuntu-BI.ttf'
p585
sg21
g22
sbag7
(g8
g9
NtRp586
(dp587
g12
g13
sg14
S'Rachana'
p588
sg16
I400
sg17
g13
sg18
g13
sg19
S'/usr/share/fonts/truetype/ttf-indic-fonts-core/Rachana_04.ttf'
p589
sg21
g22
sbag7
(g8
g9
NtRp590
(dp591
g12
g29
sg14
S'DejaVu Serif'
p592
sg16
I400
sg17
g13
sg18
g13
sg19
S'/usr/share/fonts/truetype/ttf-dejavu/DejaVuSerif-Italic.ttf'
p593
sg21
g22
sbag7
(g8
g9
NtRp594
(dp595
g12
g13
sg14
S'Droid Sans Armenian'
p596
sg16
I400
sg17
g13
sg18
g13
sg19
S'/usr/share/fonts/truetype/droid/DroidSansArmenian.ttf'
p597
sg21
g22
sbag7
(g8
g9
NtRp598
(dp599
g12
g13
sg14
S'DejaVu Sans Mono'
p600
sg16
I700
sg17
g13
sg18
g13
sg19
S'/usr/share/fonts/truetype/dejavu/DejaVuSansMono-Bold.ttf'
p601
sg21
g22
sbag7
(g8
g9
NtRp602
(dp603
g12
g13
sg14
S'Mystik Orbs'
p604
sg16
I400
sg17
g13
sg18
g13
sg19
S'/usr/share/fonts/truetype/MystikOrbs.ttf'
p605
sg21
g22
sbag7
(g8
g9
NtRp606
(dp607
g12
g138
sg14
S'DejaVu Sans'
p608
sg16
I400
sg17
g184
sg18
g13
sg19
S'/usr/share/fonts/truetype/dejavu/DejaVuSansCondensed-Oblique.ttf'
p609
sg21
g22
sbag7
(g8
g9
NtRp610
(dp611
g12
g13
sg14
S'NanumBarunGothic'
p612
sg16
I700
sg17
g13
sg18
g13
sg19
S'/usr/share/fonts/truetype/nanum/NanumBarunGothicBold.ttf'
p613
sg21
g22
sbag7
(g8
g9
NtRp614
(dp615
g12
g138
sg14
S'DejaVu Sans'
p616
sg16
I700
sg17
g184
sg18
g13
sg19
S'/usr/share/fonts/truetype/ttf-dejavu/DejaVuSansCondensed-BoldOblique.ttf'
p617
sg21
g22
sbag7
(g8
g9
NtRp618
(dp619
g12
g29
sg14
S'TeX Gyre Bonum'
p620
sg16
I700
sg17
g13
sg18
g13
sg19
S'/usr/share/texmf/fonts/opentype/public/tex-gyre/texgyrebonum-bolditalic.otf'
p621
sg21
g22
sbag7
(g8
g9
NtRp622
(dp623
g12
g13
sg14
S'TlwgMono'
p624
sg16
I700
sg17
g13
sg18
g13
sg19
S'/usr/share/fonts/truetype/tlwg/TlwgMono-Bold.ttf'
p625
sg21
g22
sbag7
(g8
g9
NtRp626
(dp627
g12
g29
sg14
S'Liberation Mono'
p628
sg16
I400
sg17
g13
sg18
g13
sg19
S'/usr/share/fonts/truetype/liberation/LiberationMono-Italic.ttf'
p629
sg21
g22
sbag7
(g8
g9
NtRp630
(dp631
g12
g29
sg14
S'Liberation Serif'
p632
sg16
I700
sg17
g13
sg18
g13
sg19
S'/usr/share/fonts/truetype/liberation/LiberationSerif-BoldItalic.ttf'
p633
sg21
g22
sbag7
(g8
g9
NtRp634
(dp635
g12
g29
sg14
S'Liberation Sans Narrow'
p636
sg16
I400
sg17
g184
sg18
g13
sg19
S'/usr/share/fonts/truetype/ttf-liberation/LiberationSansNarrow-Italic.ttf'
p637
sg21
g22
sbag7
(g8
g9
NtRp638
(dp639
g12
g13
sg14
S'Latin Modern Roman Slanted'
p640
sg16
I400
sg17
g13
sg18
g13
sg19
S'/usr/share/texmf/fonts/opentype/public/lm/lmromanslant8-regular.otf'
p641
sg21
g22
sbag7
(g8
g9
NtRp642
(dp643
g12
g138
sg14
S'Latin Modern Mono Light'
p644
sg16
I700
sg17
g13
sg18
g13
sg19
S'/usr/share/texmf/fonts/opentype/public/lm/lmmonolt10-boldoblique.otf'
p645
sg21
g22
sbag7
(g8
g9
NtRp646
(dp647
g12
g13
sg14
S'ori1Uni'
p648
sg16
I500
sg17
g13
sg18
g13
sg19
S'/usr/share/fonts/truetype/ttf-indic-fonts-core/utkal.ttf'
p649
sg21
g22
sbag7
(g8
g9
NtRp650
(dp651
g12
g13
sg14
S'KacstQurn'
p652
sg16
I400
sg17
g13
sg18
g13
sg19
S'/usr/share/fonts/truetype/kacst/KacstQurn.ttf'
p653
sg21
g22
sbag7
(g8
g9
NtRp654
(dp655
g12
g13
sg14
S'Mukti Narrow'
p656
sg16
I400
sg17
g13
sg18
g13
sg19
S'/usr/share/fonts/truetype/ttf-indic-fonts-core/MuktiNarrow.ttf'
p657
sg21
g22
sbag7
(g8
g9
NtRp658
(dp659
g12
g13
sg14
S'Latin Modern Roman'
p660
sg16
I700
sg17
g13
sg18
g13
sg19
S'/usr/share/texmf/fonts/opentype/public/lm/lmroman6-bold.otf'
p661
sg21
g22
sbag7
(g8
g9
NtRp662
(dp663
g12
g29
sg14
S'TeX Gyre Termes'
p664
sg16
I400
sg17
g13
sg18
g13
sg19
S'/usr/share/texmf/fonts/opentype/public/tex-gyre/texgyretermes-italic.otf'
p665
sg21
g22
sbag7
(g8
g9
NtRp666
(dp667
g12
g13
sg14
S'Latin Modern Mono Prop'
p668
sg16
I400
sg17
g13
sg18
g13
sg19
S'/usr/share/texmf/fonts/opentype/public/lm/lmmonoprop10-regular.otf'
p669
sg21
g22
sbag7
(g8
g9
NtRp670
(dp671
g12
g13
sg14
S'Norasi'
p672
sg16
I700
sg17
g13
sg18
g13
sg19
S'/usr/share/fonts/truetype/tlwg/Norasi-Bold.ttf'
p673
sg21
g22
sbag7
(g8
g9
NtRp674
(dp675
g12
g29
sg14
S'TeX Gyre Heros'
p676
sg16
I400
sg17
g13
sg18
g13
sg19
S'/usr/share/texmf/fonts/opentype/public/tex-gyre/texgyreheros-italic.otf'
p677
sg21
g22
sbag7
(g8
g9
NtRp678
(dp679
g12
g29
sg14
S'Courier New'
p680
sg16
I700
sg17
g13
sg18
g13
sg19
S'/usr/share/fonts/truetype/msttcorefonts/courbi.ttf'
p681
sg21
g22
sbag7
(g8
g9
NtRp682
(dp683
g12
g29
sg14
S'TeX Gyre Heros Cn'
p684
sg16
I700
sg17
g13
sg18
g13
sg19
S'/usr/share/texmf/fonts/opentype/public/tex-gyre/texgyreheroscn-bolditalic.otf'
p685
sg21
g22
sbag7
(g8
g9
NtRp686
(dp687
g12
g138
sg14
S'Kinnari'
p688
sg16
I700
sg17
g13
sg18
g13
sg19
S'/usr/share/fonts/truetype/tlwg/Kinnari-BoldOblique.ttf'
p689
sg21
g22
sbag7
(g8
g9
NtRp690
(dp691
g12
g13
sg14
S'Mallige'
p692
sg16
I400
sg17
g13
sg18
g13
sg19
S'/usr/share/fonts/truetype/ttf-indic-fonts-core/Malige-n.ttf'
p693
sg21
g22
sbag7
(g8
g9
NtRp694
(dp695
g12
g13
sg14
S'Georgia'
p696
sg16
I400
sg17
g13
sg18
g13
sg19
S'/usr/share/fonts/truetype/msttcorefonts/georgia.ttf'
p697
sg21
g22
sbag7
(g8
g9
NtRp698
(dp699
g12
g13
sg14
S'Latin Modern Roman'
p700
sg16
I400
sg17
g13
sg18
g13
sg19
S'/usr/share/texmf/fonts/opentype/public/lm/lmroman10-regular.otf'
p701
sg21
g22
sbag7
(g8
g9
NtRp702
(dp703
g12
g13
sg14
S'KacstOne'
p704
sg16
I400
sg17
g13
sg18
g13
sg19
S'/usr/share/fonts/truetype/kacst-one/KacstOne.ttf'
p705
sg21
g22
sbag7
(g8
g9
NtRp706
(dp707
g12
g138
sg14
S'Latin Modern Sans'
p708
sg16
I700
sg17
g13
sg18
g13
sg19
S'/usr/share/texmf/fonts/opentype/public/lm/lmsans10-boldoblique.otf'
p709
sg21
g22
sbag7
(g8
g9
NtRp710
(dp711
g12
g29
sg14
S'TeX Gyre Schola'
p712
sg16
I700
sg17
g13
sg18
g13
sg19
S'/usr/share/texmf/fonts/opentype/public/tex-gyre/texgyreschola-bolditalic.otf'
p713
sg21
g22
sbag7
(g8
g9
NtRp714
(dp715
g12
g13
sg14
S'Lohit Bengali'
p716
sg16
I400
sg17
g13
sg18
g13
sg19
S'/usr/share/fonts/truetype/ttf-indic-fonts-core/lohit_bn.ttf'
p717
sg21
g22
sbag7
(g8
g9
NtRp718
(dp719
g12
g13
sg14
S'Latin Modern Roman Slanted'
p720
sg16
I400
sg17
g13
sg18
g13
sg19
S'/usr/share/texmf/fonts/opentype/public/lm/lmromanslant9-regular.otf'
p721
sg21
g22
sbag7
(g8
g9
NtRp722
(dp723
g12
g13
sg14
S'Latin Modern Mono Slanted'
p724
sg16
I400
sg17
g13
sg18
g13
sg19
S'/usr/share/texmf/fonts/opentype/public/lm/lmmonoslant10-regular.otf'
p725
sg21
g22
sbag7
(g8
g9
NtRp726
(dp727
g12
g138
sg14
S'Latin Modern Sans Quotation'
p728
sg16
I700
sg17
g13
sg18
g13
sg19
S'/usr/share/texmf/fonts/opentype/public/lm/lmsansquot8-boldoblique.otf'
p729
sg21
g22
sbag7
(g8
g9
NtRp730
(dp731
g12
g13
sg14
S'Saab'
p732
sg16
I400
sg17
g13
sg18
g13
sg19
S'/usr/share/fonts/truetype/ttf-punjabi-fonts/Saab.ttf'
p733
sg21
g22
sbag7
(g8
g9
NtRp734
(dp735
g12
g13
sg14
S'KacstBook'
p736
sg16
I400
sg17
g13
sg18
g13
sg19
S'/usr/share/fonts/truetype/kacst/KacstBook.ttf'
p737
sg21
g22
sbag7
(g8
g9
NtRp738
(dp739
g12
g29
sg14
S'Droid Serif'
p740
sg16
I700
sg17
g13
sg18
g13
sg19
S'/usr/share/fonts/truetype/droid/DroidSerif-BoldItalic.ttf'
p741
sg21
g22
sbag7
(g8
g9
NtRp742
(dp743
g12
g29
sg14
S'Georgia'
p744
sg16
I400
sg17
g13
sg18
g13
sg19
S'/usr/share/fonts/truetype/msttcorefonts/georgiai.ttf'
p745
sg21
g22
sbag7
(g8
g9
NtRp746
(dp747
g12
g13
sg14
S'TeX Gyre Heros'
p748
sg16
I700
sg17
g13
sg18
g13
sg19
S'/usr/share/texmf/fonts/opentype/public/tex-gyre/texgyreheros-bold.otf'
p749
sg21
g22
sbag7
(g8
g9
NtRp750
(dp751
g12
g13
sg14
S'wasy10'
p752
sg16
I400
sg17
g13
sg18
g13
sg19
S'/usr/share/fonts/truetype/lyx/wasy10.ttf'
p753
sg21
g22
sbag7
(g8
g9
NtRp754
(dp755
g12
g13
sg14
S'Pothana2000'
p756
sg16
I400
sg17
g13
sg18
g13
sg19
S'/usr/share/fonts/truetype/ttf-indic-fonts-core/Pothana2000.ttf'
p757
sg21
g22
sbag7
(g8
g9
NtRp758
(dp759
g12
g13
sg14
S'DejaVu Sans'
p760
sg16
I400
sg17
g184
sg18
g13
sg19
S'/usr/share/fonts/truetype/dejavu/DejaVuSansCondensed.ttf'
p761
sg21
g22
sbag7
(g8
g9
NtRp762
(dp763
g12
g13
sg14
S'UnGungseo'
p764
sg16
I400
sg17
g13
sg18
g13
sg19
S'/usr/share/fonts/truetype/unfonts-core/UnGungseo.ttf'
p765
sg21
g22
sbag7
(g8
g9
NtRp766
(dp767
g12
g13
sg14
S'Latin Modern Roman'
p768
sg16
I400
sg17
g13
sg18
g13
sg19
S'/usr/share/texmf/fonts/opentype/public/lm/lmroman8-regular.otf'
p769
sg21
g22
sbag7
(g8
g9
NtRp770
(dp771
g12
g13
sg14
S'KacstDecorative'
p772
sg16
I400
sg17
g13
sg18
g13
sg19
S'/usr/share/fonts/truetype/kacst/KacstDecorative.ttf'
p773
sg21
g22
sbag7
(g8
g9
NtRp774
(dp775
g12
g13
sg14
S'Ubuntu'
p776
sg16
I700
sg17
g13
sg18
g13
sg19
S'/usr/share/fonts/truetype/ubuntu-font-family/Ubuntu-B.ttf'
p777
sg21
g22
sbag7
(g8
g9
NtRp778
(dp779
g12
g138
sg14
S'FreeSans'
p780
sg16
I700
sg17
g13
sg18
g13
sg19
S'/usr/share/fonts/truetype/freefont/FreeSansBoldOblique.ttf'
p781
sg21
g22
sbag7
(g8
g9
NtRp782
(dp783
g12
g138
sg14
S'Latin Modern Sans'
p784
sg16
I400
sg17
g13
sg18
g13
sg19
S'/usr/share/texmf/fonts/opentype/public/lm/lmsans12-oblique.otf'
p785
sg21
g22
sbag7
(g8
g9
NtRp786
(dp787
g12
g13
sg14
S'Liberation Mono'
p788
sg16
I700
sg17
g13
sg18
g13
sg19
S'/usr/share/fonts/truetype/liberation/LiberationMono-Bold.ttf'
p789
sg21
g22
sbag7
(g8
g9
NtRp790
(dp791
g12
g13
sg14
S'Latin Modern Sans Demi Cond'
p792
sg16
I600
sg17
g184
sg18
g13
sg19
S'/usr/share/texmf/fonts/opentype/public/lm/lmsansdemicond10-regular.otf'
p793
sg21
g22
sbag7
(g8
g9
NtRp794
(dp795
g12
g13
sg14
S'Padauk Book'
p796
sg16
I700
sg17
g13
sg18
g13
sg19
S'/usr/share/fonts/truetype/padauk/Padauk-bookbold.ttf'
p797
sg21
g22
sbag7
(g8
g9
NtRp798
(dp799
g12
g13
sg14
S'FreeSans'
p800
sg16
I400
sg17
g13
sg18
g13
sg19
S'/usr/share/fonts/truetype/freefont/FreeSans.ttf'
p801
sg21
g22
sbag7
(g8
g9
NtRp802
(dp803
g12
g13
sg14
S'NanumMyeongjo'
p804
sg16
I700
sg17
g13
sg18
g13
sg19
S'/usr/share/fonts/truetype/nanum/NanumMyeongjoBold.ttf'
p805
sg21
g22
sbag7
(g8
g9
NtRp806
(dp807
g12
g13
sg14
S'DejaVu Serif'
p808
sg16
I700
sg17
g13
sg18
g13
sg19
S'/usr/share/fonts/truetype/dejavu/DejaVuSerif-Bold.ttf'
p809
sg21
g22
sbag7
(g8
g9
NtRp810
(dp811
g12
g138
sg14
S'Kinnari'
p812
sg16
I400
sg17
g13
sg18
g13
sg19
S'/usr/share/fonts/truetype/tlwg/Kinnari-Oblique.ttf'
p813
sg21
g22
sbag7
(g8
g9
NtRp814
(dp815
g12
g29
sg14
S'TeX Gyre Adventor'
p816
sg16
I700
sg17
g13
sg18
g13
sg19
S'/usr/share/texmf/fonts/opentype/public/tex-gyre/texgyreadventor-bolditalic.otf'
p817
sg21
g22
sbag7
(g8
g9
NtRp818
(dp819
g12
g13
sg14
S'Umpush'
p820
sg16
I200
sg17
g13
sg18
g13
sg19
S'/usr/share/fonts/truetype/tlwg/Umpush-Light.ttf'
p821
sg21
g22
sbag7
(g8
g9
NtRp822
(dp823
g12
g29
sg14
S'TeX Gyre Schola'
p824
sg16
I400
sg17
g13
sg18
g13
sg19
S'/usr/share/texmf/fonts/opentype/public/tex-gyre/texgyreschola-italic.otf'
p825
sg21
g22
sbag7
(g8
g9
NtRp826
(dp827
g12
g13
sg14
S'UnBatang'
p828
sg16
I700
sg17
g13
sg18
g13
sg19
S'/usr/share/fonts/truetype/unfonts-core/UnBatangBold.ttf'
p829
sg21
g22
sbag7
(g8
g9
NtRp830
(dp831
g12
g138
sg14
S'Purisa'
p832
sg16
I700
sg17
g13
sg18
g13
sg19
S'/usr/share/fonts/truetype/tlwg/Purisa-BoldOblique.ttf'
p833
sg21
g22
sbag7
(g8
g9
NtRp834
(dp835
g12
g13
sg14
S'TeX Gyre Heros'
p836
sg16
I400
sg17
g13
sg18
g13
sg19
S'/usr/share/texmf/fonts/opentype/public/tex-gyre/texgyreheros-regular.otf'
p837
sg21
g22
sbag7
(g8
g9
NtRp838
(dp839
g12
g29
sg14
S'Georgia'
p840
sg16
I700
sg17
g13
sg18
g13
sg19
S'/usr/share/fonts/truetype/msttcorefonts/georgiaz.ttf'
p841
sg21
g22
sbag7
(g8
g9
NtRp842
(dp843
g12
g13
sg14
S'DejaVu Sans'
p844
sg16
I400
sg17
g13
sg18
g13
sg19
S'/usr/share/fonts/truetype/dejavu/DejaVuSans.ttf'
p845
sg21
g22
sbag7
(g8
g9
NtRp846
(dp847
g12
g13
sg14
S'Phetsarath OT'
p848
sg16
I400
sg17
g13
sg18
g13
sg19
S'/usr/share/fonts/truetype/lao/Phetsarath_OT.ttf'
p849
sg21
g22
sbag7
(g8
g9
NtRp850
(dp851
g12
g138
sg14
S'FreeMono'
p852
sg16
I400
sg17
g13
sg18
g13
sg19
S'/usr/share/fonts/truetype/freefont/FreeMonoOblique.ttf'
p853
sg21
g22
sbag7
(g8
g9
NtRp854
(dp855
g12
g13
sg14
S'Webdings'
p856
sg16
I400
sg17
g13
sg18
g13
sg19
S'/usr/share/fonts/truetype/msttcorefonts/webdings.ttf'
p857
sg21
g22
sbag7
(g8
g9
NtRp858
(dp859
g12
g13
sg14
S'Liberation Sans Narrow'
p860
sg16
I400
sg17
g184
sg18
g13
sg19
S'/usr/share/fonts/truetype/liberation/LiberationSansNarrow-Regular.ttf'
p861
sg21
g22
sbag7
(g8
g9
NtRp862
(dp863
g12
g29
sg14
S'Trebuchet MS'
p864
sg16
I400
sg17
g13
sg18
g13
sg19
S'/usr/share/fonts/truetype/msttcorefonts/trebucit.ttf'
p865
sg21
g22
sbag7
(g8
g9
NtRp866
(dp867
g12
g138
sg14
S'Latin Modern Sans Quotation'
p868
sg16
I700
sg17
g13
sg18
g13
sg19
S'/usr/share/texmf/fonts/opentype/public/lm/lmsansquot8-oblique.otf'
p869
sg21
g22
sbag7
(g8
g9
NtRp870
(dp871
g12
g13
sg14
S'Comic Sans MS'
p872
sg16
I400
sg17
g13
sg18
g13
sg19
S'/usr/share/fonts/truetype/msttcorefonts/Comic_Sans_MS.ttf'
p873
sg21
g22
sbag7
(g8
g9
NtRp874
(dp875
g12
g138
sg14
S'Sawasdee'
p876
sg16
I400
sg17
g13
sg18
g13
sg19
S'/usr/share/fonts/truetype/tlwg/Sawasdee-Oblique.ttf'
p877
sg21
g22
sbag7
(g8
g9
NtRp878
(dp879
g12
g29
sg14
S'Latin Modern Roman'
p880
sg16
I700
sg17
g13
sg18
g13
sg19
S'/usr/share/texmf/fonts/opentype/public/lm/lmroman10-bolditalic.otf'
p881
sg21
g22
sbag7
(g8
g9
NtRp882
(dp883
g12
g13
sg14
S'Khmer OS'
p884
sg16
I400
sg17
g13
sg18
g13
sg19
S'/usr/share/fonts/truetype/ttf-khmeros-core/KhmerOS.ttf'
p885
sg21
g22
sbag7
(g8
g9
NtRp886
(dp887
g12
g13
sg14
S'Padauk'
p888
sg16
I400
sg17
g13
sg18
g13
sg19
S'/usr/share/fonts/truetype/padauk/Padauk.ttf'
p889
sg21
g22
sbag7
(g8
g9
NtRp890
(dp891
g12
g13
sg14
S'Droid Sans Japanese'
p892
sg16
I400
sg17
g13
sg18
g13
sg19
S'/usr/share/fonts/truetype/droid/DroidSansJapanese.ttf'
p893
sg21
g22
sbag7
(g8
g9
NtRp894
(dp895
g12
g13
sg14
S'Latin Modern Mono Prop Light'
p896
sg16
I400
sg17
g13
sg18
g13
sg19
S'/usr/share/texmf/fonts/opentype/public/lm/lmmonoproplt10-regular.otf'
p897
sg21
g22
sbag7
(g8
g9
NtRp898
(dp899
g12
g138
sg14
S'TlwgTypewriter'
p900
sg16
I400
sg17
g13
sg18
g13
sg19
S'/usr/share/fonts/truetype/tlwg/TlwgTypewriter-Oblique.ttf'
p901
sg21
g22
sbag7
(g8
g9
NtRp902
(dp903
g12
g13
sg14
S'Paintball'
p904
sg16
I400
sg17
g13
sg18
g13
sg19
S'/usr/share/fonts/truetype/Paintball.ttf'
p905
sg21
g22
sbag7
(g8
g9
NtRp906
(dp907
g12
g13
sg14
S'Waree'
p908
sg16
I400
sg17
g13
sg18
g13
sg19
S'/usr/share/fonts/truetype/tlwg/Waree.ttf'
p909
sg21
g22
sbag7
(g8
g9
NtRp910
(dp911
g12
g13
sg14
S'FreeMono'
p912
sg16
I400
sg17
g13
sg18
g13
sg19
S'/usr/share/fonts/truetype/freefont/FreeMono.ttf'
p913
sg21
g22
sbag7
(g8
g9
NtRp914
(dp915
g12
g13
sg14
S'Latin Modern Mono'
p916
sg16
I400
sg17
g13
sg18
g13
sg19
S'/usr/share/texmf/fonts/opentype/public/lm/lmmono9-regular.otf'
p917
sg21
g22
sbag7
(g8
g9
NtRp918
(dp919
g12
g13
sg14
S'Latin Modern Roman'
p920
sg16
I700
sg17
g13
sg18
g13
sg19
S'/usr/share/texmf/fonts/opentype/public/lm/lmroman10-bold.otf'
p921
sg21
g22
sbag7
(g8
g9
NtRp922
(dp923
g12
g13
sg14
S'UnPilgi'
p924
sg16
I700
sg17
g13
sg18
g13
sg19
S'/usr/share/fonts/truetype/unfonts-core/UnPilgiBold.ttf'
p925
sg21
g22
sbag7
(g8
g9
NtRp926
(dp927
g12
g13
sg14
S'Droid Sans Ethiopic'
p928
sg16
I400
sg17
g13
sg18
g13
sg19
S'/usr/share/fonts/truetype/droid/DroidSansEthiopic-Regular.ttf'
p929
sg21
g22
sbag7
(g8
g9
NtRp930
(dp931
g12
g13
sg14
S'Liberation Sans'
p932
sg16
I400
sg17
g13
sg18
g13
sg19
S'/usr/share/fonts/truetype/ttf-liberation/LiberationSans-Regular.ttf'
p933
sg21
g22
sbag7
(g8
g9
NtRp934
(dp935
g12
g13
sg14
S'Latin Modern Roman'
p936
sg16
I400
sg17
g13
sg18
g13
sg19
S'/usr/share/texmf/fonts/opentype/public/lm/lmroman7-regular.otf'
p937
sg21
g22
sbag7
(g8
g9
NtRp938
(dp939
g12
g13
sg14
S'Umpush'
p940
sg16
I400
sg17
g13
sg18
g13
sg19
S'/usr/share/fonts/truetype/tlwg/Umpush.ttf'
p941
sg21
g22
sbag7
(g8
g9
NtRp942
(dp943
g12
g29
sg14
S'TeX Gyre Heros'
p944
sg16
I700
sg17
g13
sg18
g13
sg19
S'/usr/share/texmf/fonts/opentype/public/tex-gyre/texgyreheros-bolditalic.otf'
p945
sg21
g22
sbag7
(g8
g9
NtRp946
(dp947
g12
g13
sg14
S'Times New Roman'
p948
sg16
I500
sg17
g13
sg18
g13
sg19
S'/usr/share/fonts/truetype/msttcorefonts/Times_New_Roman.ttf'
p949
sg21
g22
sbag7
(g8
g9
NtRp950
(dp951
g12
g13
sg14
S'Plasma Drip Empty BRK'
p952
sg16
I400
sg17
g13
sg18
g13
sg19
S'/usr/share/fonts/truetype/plasdrpe.ttf'
p953
sg21
g22
sbag7
(g8
g9
NtRp954
(dp955
g12
g29
sg14
S'TeX Gyre Cursor'
p956
sg16
I700
sg17
g13
sg18
g13
sg19
S'/usr/share/texmf/fonts/opentype/public/tex-gyre/texgyrecursor-bolditalic.otf'
p957
sg21
g22
sbag7
(g8
g9
NtRp958
(dp959
g12
g13
sg14
S'Latin Modern Sans'
p960
sg16
I700
sg17
g13
sg18
g13
sg19
S'/usr/share/texmf/fonts/opentype/public/lm/lmsans10-bold.otf'
p961
sg21
g22
sbag7
(g8
g9
NtRp962
(dp963
g12
g13
sg14
S'DejaVu Sans Mono'
p964
sg16
I400
sg17
g13
sg18
g13
sg19
S'/usr/share/fonts/truetype/ttf-dejavu/DejaVuSansMono.ttf'
p965
sg21
g22
sbag7
(g8
g9
NtRp966
(dp967
g12
g13
sg14
S'Lohit Punjabi'
p968
sg16
I400
sg17
g13
sg18
g13
sg19
S'/usr/share/fonts/truetype/ttf-punjabi-fonts/lohit_pa.ttf'
p969
sg21
g22
sbag7
(g8
g9
NtRp970
(dp971
g12
g13
sg14
S'Georgia'
p972
sg16
I700
sg17
g13
sg18
g13
sg19
S'/usr/share/fonts/truetype/msttcorefonts/Georgia_Bold.ttf'
p973
sg21
g22
sbag7
(g8
g9
NtRp974
(dp975
g12
g13
sg14
S'FreeSerif'
p976
sg16
I700
sg17
g13
sg18
g13
sg19
S'/usr/share/fonts/truetype/freefont/FreeSerifBold.ttf'
p977
sg21
g22
sbag7
(g8
g9
NtRp978
(dp979
g12
g13
sg14
S'msam10'
p980
sg16
I400
sg17
g13
sg18
g13
sg19
S'/usr/share/fonts/truetype/lyx/msam10.ttf'
p981
sg21
g22
sbag7
(g8
g9
NtRp982
(dp983
g12
g13
sg14
S'TeX Gyre Termes'
p984
sg16
I400
sg17
g13
sg18
g13
sg19
S'/usr/share/texmf/fonts/opentype/public/tex-gyre/texgyretermes-regular.otf'
p985
sg21
g22
sbag7
(g8
g9
NtRp986
(dp987
g12
g13
sg14
S'LKLUG'
p988
sg16
I400
sg17
g13
sg18
g13
sg19
S'/usr/share/fonts/truetype/sinhala/lklug.ttf'
p989
sg21
g22
sbag7
(g8
g9
NtRp990
(dp991
g12
g13
sg14
S'Lohit Devanagari'
p992
sg16
I400
sg17
g13
sg18
g13
sg19
S'/usr/share/fonts/truetype/ttf-indic-fonts-core/lohit_hi.ttf'
p993
sg21
g22
sbag7
(g8
g9
NtRp994
(dp995
g12
g13
sg14
S'Courier New'
p996
sg16
I700
sg17
g13
sg18
g13
sg19
S'/usr/share/fonts/truetype/msttcorefonts/Courier_New_Bold.ttf'
p997
sg21
g22
sbag7
(g8
g9
NtRp998
(dp999
g12
g13
sg14
S'Ubuntu'
p1000
sg16
I400
sg17
g13
sg18
g13
sg19
S'/usr/share/fonts/truetype/ubuntu-font-family/Ubuntu-R.ttf'
p1001
sg21
g22
sbag7
(g8
g9
NtRp1002
(dp1003
g12
g138
sg14
S'TlwgMono'
p1004
sg16
I400
sg17
g13
sg18
g13
sg19
S'/usr/share/fonts/truetype/tlwg/TlwgMono-Oblique.ttf'
p1005
sg21
g22
sbag7
(g8
g9
NtRp1006
(dp1007
g12
g29
sg14
S'TeX Gyre Pagella'
p1008
sg16
I700
sg17
g13
sg18
g13
sg19
S'/usr/share/texmf/fonts/opentype/public/tex-gyre/texgyrepagella-bolditalic.otf'
p1009
sg21
g22
sbag7
(g8
g9
NtRp1010
(dp1011
g12
g13
sg14
S'Georgia'
p1012
sg16
I400
sg17
g13
sg18
g13
sg19
S'/usr/share/fonts/truetype/msttcorefonts/Georgia.ttf'
p1013
sg21
g22
sbag7
(g8
g9
NtRp1014
(dp1015
g12
g13
sg14
S'msbm10'
p1016
sg16
I400
sg17
g13
sg18
g13
sg19
S'/usr/share/fonts/truetype/lyx/msbm10.ttf'
p1017
sg21
g22
sbag7
(g8
g9
NtRp1018
(dp1019
g12
g29
sg14
S'DejaVu Serif'
p1020
sg16
I400
sg17
g184
sg18
g13
sg19
S'/usr/share/fonts/truetype/dejavu/DejaVuSerifCondensed-Italic.ttf'
p1021
sg21
g22
sbag7
(g8
g9
NtRp1022
(dp1023
g12
g13
sg14
S'Verdana'
p1024
sg16
I400
sg17
g13
sg18
g13
sg19
S'/usr/share/fonts/truetype/msttcorefonts/Verdana.ttf'
p1025
sg21
g22
sbag7
(g8
g9
NtRp1026
(dp1027
g12
g138
sg14
S'Tlwg Typist'
p1028
sg16
I700
sg17
g13
sg18
g13
sg19
S'/usr/share/fonts/truetype/tlwg/TlwgTypist-BoldOblique.ttf'
p1029
sg21
g22
sbag7
(g8
g9
NtRp1030
(dp1031
g12
g138
sg14
S'TlwgMono'
p1032
sg16
I700
sg17
g13
sg18
g13
sg19
S'/usr/share/fonts/truetype/tlwg/TlwgMono-BoldOblique.ttf'
p1033
sg21
g22
sbag7
(g8
g9
NtRp1034
(dp1035
g12
g13
sg14
S'Courier New'
p1036
sg16
I400
sg17
g13
sg18
g13
sg19
S'/usr/share/fonts/truetype/msttcorefonts/cour.ttf'
p1037
sg21
g22
sbag7
(g8
g9
NtRp1038
(dp1039
g12
g13
sg14
S'TG Pagella Math'
p1040
sg16
I400
sg17
g13
sg18
g13
sg19
S'/usr/share/texmf/fonts/opentype/public/tex-gyre-math/texgyrepagella-math.otf'
p1041
sg21
g22
sbag7
(g8
g9
NtRp1042
(dp1043
g12
g13
sg14
S'TakaoPGothic'
p1044
sg16
I400
sg17
g13
sg18
g13
sg19
S'/usr/share/fonts/truetype/takao-gothic/TakaoPGothic.ttf'
p1045
sg21
g22
sbag7
(g8
g9
NtRp1046
(dp1047
g12
g13
sg14
S'Droid Sans'
p1048
sg16
I400
sg17
g13
sg18
g13
sg19
S'/usr/share/fonts/truetype/droid/DroidSans.ttf'
p1049
sg21
g22
sbag7
(g8
g9
NtRp1050
(dp1051
g12
g29
sg14
S'TeX Gyre Heros Cn'
p1052
sg16
I400
sg17
g13
sg18
g13
sg19
S'/usr/share/texmf/fonts/opentype/public/tex-gyre/texgyreheroscn-italic.otf'
p1053
sg21
g22
sbag7
(g8
g9
NtRp1054
(dp1055
g12
g13
sg14
S'Kedage'
p1056
sg16
I700
sg17
g13
sg18
g13
sg19
S'/usr/share/fonts/truetype/ttf-indic-fonts-core/Kedage-b.ttf'
p1057
sg21
g22
sbag7
(g8
g9
NtRp1058
(dp1059
g12
g13
sg14
S'Courier New'
p1060
sg16
I400
sg17
g13
sg18
g13
sg19
S'/usr/share/fonts/truetype/msttcorefonts/Courier_New.ttf'
p1061
sg21
g22
sbag7
(g8
g9
NtRp1062
(dp1063
g12
g13
sg14
S'Latin Modern Mono'
p1064
sg16
I400
sg17
g13
sg18
g13
sg19
S'/usr/share/texmf/fonts/opentype/public/lm/lmmono12-regular.otf'
p1065
sg21
g22
sbag7
(g8
g9
NtRp1066
(dp1067
g12
g29
sg14
S'Norasi'
p1068
sg16
I700
sg17
g13
sg18
g13
sg19
S'/usr/share/fonts/truetype/tlwg/Norasi-BoldItalic.ttf'
p1069
sg21
g22
sbag7
(g8
g9
NtRp1070
(dp1071
g12
g13
sg14
S'Umpush'
p1072
sg16
I700
sg17
g13
sg18
g13
sg19
S'/usr/share/fonts/truetype/tlwg/Umpush-Bold.ttf'
p1073
sg21
g22
sbag7
(g8
g9
NtRp1074
(dp1075
g12
g29
sg14
S'Liberation Sans'
p1076
sg16
I700
sg17
g13
sg18
g13
sg19
S'/usr/share/fonts/truetype/liberation/LiberationSans-BoldItalic.ttf'
p1077
sg21
g22
sbag7
(g8
g9
NtRp1078
(dp1079
g12
g13
sg14
S'TeX Gyre Adventor'
p1080
sg16
I700
sg17
g13
sg18
g13
sg19
S'/usr/share/texmf/fonts/opentype/public/tex-gyre/texgyreadventor-bold.otf'
p1081
sg21
g22
sbag7
(g8
g9
NtRp1082
(dp1083
g12
g13
sg14
S'Vemana2000'
p1084
sg16
I400
sg17
g13
sg18
g13
sg19
S'/usr/share/fonts/truetype/ttf-indic-fonts-core/Vemana.ttf'
p1085
sg21
g22
sbag7
(g8
g9
NtRp1086
(dp1087
g12
g138
sg14
S'Norasi'
p1088
sg16
I700
sg17
g13
sg18
g13
sg19
S'/usr/share/fonts/truetype/tlwg/Norasi-BoldOblique.ttf'
p1089
sg21
g22
sbag7
(g8
g9
NtRp1090
(dp1091
g12
g13
sg14
S'Latin Modern Mono Light Cond'
p1092
sg16
I400
sg17
g184
sg18
g13
sg19
S'/usr/share/texmf/fonts/opentype/public/lm/lmmonoltcond10-regular.otf'
p1093
sg21
g22
sbag7
(g8
g9
NtRp1094
(dp1095
g12
g13
sg14
S'Latin Modern Roman Demi'
p1096
sg16
I600
sg17
g13
sg18
g13
sg19
S'/usr/share/texmf/fonts/opentype/public/lm/lmromandemi10-regular.otf'
p1097
sg21
g22
sbag7
(g8
g9
NtRp1098
(dp1099
g12
g13
sg14
S'Ubuntu'
p1100
sg16
I200
sg17
g13
sg18
g13
sg19
S'/usr/share/fonts/truetype/ubuntu-font-family/Ubuntu-L.ttf'
p1101
sg21
g22
sbag7
(g8
g9
NtRp1102
(dp1103
g12
g13
sg14
S'Latin Modern Roman'
p1104
sg16
I400
sg17
g13
sg18
g13
sg19
S'/usr/share/texmf/fonts/opentype/public/lm/lmroman9-regular.otf'
p1105
sg21
g22
sbag7
(g8
g9
NtRp1106
(dp1107
g12
g138
sg14
S'Latin Modern Sans Demi Cond'
p1108
sg16
I600
sg17
g184
sg18
g13
sg19
S'/usr/share/texmf/fonts/opentype/public/lm/lmsansdemicond10-oblique.otf'
p1109
sg21
g22
sbag7
(g8
g9
NtRp1110
(dp1111
g12
g13
sg14
S'DejaVu Sans'
p1112
sg16
I200
sg17
g13
sg18
g13
sg19
S'/usr/share/fonts/truetype/dejavu/DejaVuSans-ExtraLight.ttf'
p1113
sg21
g22
sbag7
(g8
g9
NtRp1114
(dp1115
g12
g13
sg14
S'KacstFarsi'
p1116
sg16
I400
sg17
g13
sg18
g13
sg19
S'/usr/share/fonts/truetype/kacst/KacstFarsi.ttf'
p1117
sg21
g22
sbag7
(g8
g9
NtRp1118
(dp1119
g12
g13
sg14
S'Andale Mono'
p1120
sg16
I400
sg17
g13
sg18
g13
sg19
S'/usr/share/fonts/truetype/msttcorefonts/Andale_Mono.ttf'
p1121
sg21
g22
sbag7
(g8
g9
NtRp1122
(dp1123
g12
g13
sg14
S'Latin Modern Roman Slanted'
p1124
sg16
I400
sg17
g13
sg18
g13
sg19
S'/usr/share/texmf/fonts/opentype/public/lm/lmromanslant17-regular.otf'
p1125
sg21
g22
sbag7
(g8
g9
NtRp1126
(dp1127
g12
g13
sg14
S'TeX Gyre Cursor'
p1128
sg16
I700
sg17
g13
sg18
g13
sg19
S'/usr/share/texmf/fonts/opentype/public/tex-gyre/texgyrecursor-bold.otf'
p1129
sg21
g22
sbag7
(g8
g9
NtRp1130
(dp1131
g12
g13
sg14
S'TeX Gyre Adventor'
p1132
sg16
I400
sg17
g13
sg18
g13
sg19
S'/usr/share/texmf/fonts/opentype/public/tex-gyre/texgyreadventor-regular.otf'
p1133
sg21
g22
sbag7
(g8
g9
NtRp1134
(dp1135
g12
g29
sg14
S'Courier New'
p1136
sg16
I400
sg17
g13
sg18
g13
sg19
S'/usr/share/fonts/truetype/msttcorefonts/Courier_New_Italic.ttf'
p1137
sg21
g22
sbag7
(g8
g9
NtRp1138
(dp1139
g12
g138
sg14
S'Latin Modern Mono Light Cond'
p1140
sg16
I200
sg17
g184
sg18
g13
sg19
S'/usr/share/texmf/fonts/opentype/public/lm/lmmonoltcond10-oblique.otf'
p1141
sg21
g22
sbag7
(g8
g9
NtRp1142
(dp1143
g12
g138
sg14
S'Loma'
p1144
sg16
I700
sg17
g13
sg18
g13
sg19
S'/usr/share/fonts/truetype/tlwg/Loma-BoldOblique.ttf'
p1145
sg21
g22
sbag7
(g8
g9
NtRp1146
(dp1147
g12
g13
sg14
S'TlwgTypewriter'
p1148
sg16
I400
sg17
g13
sg18
g13
sg19
S'/usr/share/fonts/truetype/tlwg/TlwgTypewriter.ttf'
p1149
sg21
g22
sbag7
(g8
g9
NtRp1150
(dp1151
g12
g13
sg14
S'Latin Modern Roman'
p1152
sg16
I700
sg17
g13
sg18
g13
sg19
S'/usr/share/texmf/fonts/opentype/public/lm/lmroman7-bold.otf'
p1153
sg21
g22
sbag7
(g8
g9
NtRp1154
(dp1155
g12
g13
sg14
S'TeX Gyre Termes'
p1156
sg16
I700
sg17
g13
sg18
g13
sg19
S'/usr/share/texmf/fonts/opentype/public/tex-gyre/texgyretermes-bold.otf'
p1157
sg21
g22
sbag7
(g8
g9
NtRp1158
(dp1159
g12
g13
sg14
S'gargi'
p1160
sg16
I400
sg17
g13
sg18
g13
sg19
S'/usr/share/fonts/truetype/ttf-indic-fonts-core/gargi.ttf'
p1161
sg21
g22
sbag7
(g8
g9
NtRp1162
(dp1163
g12
g13
sg14
S'Latin Modern Roman'
p1164
sg16
I700
sg17
g13
sg18
g13
sg19
S'/usr/share/texmf/fonts/opentype/public/lm/lmroman9-bold.otf'
p1165
sg21
g22
sbag7
(g8
g9
NtRp1166
(dp1167
g12
g13
sg14
S'Arial Black'
p1168
sg16
I900
sg17
g13
sg18
g13
sg19
S'/usr/share/fonts/truetype/msttcorefonts/Arial_Black.ttf'
p1169
sg21
g22
sbag7
(g8
g9
NtRp1170
(dp1171
g12
g13
sg14
S'Webdings'
p1172
sg16
I400
sg17
g13
sg18
g13
sg19
S'/usr/share/fonts/truetype/msttcorefonts/Webdings.ttf'
p1173
sg21
g22
sbag7
(g8
g9
NtRp1174
(dp1175
g12
g138
sg14
S'Latin Modern Sans'
p1176
sg16
I400
sg17
g13
sg18
g13
sg19
S'/usr/share/texmf/fonts/opentype/public/lm/lmsans8-oblique.otf'
p1177
sg21
g22
sbag7
(g8
g9
NtRp1178
(dp1179
g12
g13
sg14
S'UnDotum'
p1180
sg16
I700
sg17
g13
sg18
g13
sg19
S'/usr/share/fonts/truetype/unfonts-core/UnDotumBold.ttf'
p1181
sg21
g22
sbag7
(g8
g9
NtRp1182
(dp1183
g12
g138
sg14
S'FreeMono'
p1184
sg16
I700
sg17
g13
sg18
g13
sg19
S'/usr/share/fonts/truetype/freefont/FreeMonoBoldOblique.ttf'
p1185
sg21
g22
sbag7
(g8
g9
NtRp1186
(dp1187
g12
g13
sg14
S'TeX Gyre Schola'
p1188
sg16
I700
sg17
g13
sg18
g13
sg19
S'/usr/share/texmf/fonts/opentype/public/tex-gyre/texgyreschola-bold.otf'
p1189
sg21
g22
sbag7
(g8
g9
NtRp1190
(dp1191
g12
g29
sg14
S'Arial'
p1192
sg16
I400
sg17
g13
sg18
g13
sg19
S'/usr/share/fonts/truetype/msttcorefonts/ariali.ttf'
p1193
sg21
g22
sbag7
(g8
g9
NtRp1194
(dp1195
g12
g29
sg14
S'Trebuchet MS'
p1196
sg16
I700
sg17
g13
sg18
g13
sg19
S'/usr/share/fonts/truetype/msttcorefonts/trebucbi.ttf'
p1197
sg21
g22
sbag7
(g8
g9
NtRp1198
(dp1199
g12
g13
sg14
S'KacstArt'
p1200
sg16
I400
sg17
g13
sg18
g13
sg19
S'/usr/share/fonts/truetype/kacst/KacstArt.ttf'
p1201
sg21
g22
sbag7
(g8
g9
NtRp1202
(dp1203
g12
g29
sg14
S'Liberation Sans Narrow'
p1204
sg16
I700
sg17
g184
sg18
g13
sg19
S'/usr/share/fonts/truetype/liberation/LiberationSansNarrow-BoldItalic.ttf'
p1205
sg21
g22
sbag7
(g8
g9
NtRp1206
(dp1207
g12
g29
sg14
S'Times New Roman'
p1208
sg16
I500
sg17
g13
sg18
g13
sg19
S'/usr/share/fonts/truetype/msttcorefonts/timesi.ttf'
p1209
sg21
g22
sbag7
(g8
g9
NtRp1210
(dp1211
g12
g29
sg14
S'Times New Roman'
p1212
sg16
I500
sg17
g13
sg18
g13
sg19
S'/usr/share/fonts/truetype/msttcorefonts/Times_New_Roman_Italic.ttf'
p1213
sg21
g22
sbag7
(g8
g9
NtRp1214
(dp1215
g12
g13
sg14
S'Ubuntu Condensed'
p1216
sg16
I400
sg17
g184
sg18
g13
sg19
S'/usr/share/fonts/truetype/ubuntu-font-family/Ubuntu-C.ttf'
p1217
sg21
g22
sbag7
(g8
g9
NtRp1218
(dp1219
g12
g13
sg14
S'Latin Modern Roman Slanted'
p1220
sg16
I400
sg17
g13
sg18
g13
sg19
S'/usr/share/texmf/fonts/opentype/public/lm/lmromanslant12-regular.otf'
p1221
sg21
g22
sbag7
(g8
g9
NtRp1222
(dp1223
g12
g13
sg14
S'Latin Modern Sans'
p1224
sg16
I400
sg17
g13
sg18
g13
sg19
S'/usr/share/texmf/fonts/opentype/public/lm/lmsans17-regular.otf'
p1225
sg21
g22
sbag7
(g8
g9
NtRp1226
(dp1227
g12
g29
sg14
S'Courier New'
p1228
sg16
I700
sg17
g13
sg18
g13
sg19
S'/usr/share/fonts/truetype/msttcorefonts/Courier_New_Bold_Italic.ttf'
p1229
sg21
g22
sbag7
(g8
g9
NtRp1230
(dp1231
g12
g13
sg14
S'Kinnari'
p1232
sg16
I700
sg17
g13
sg18
g13
sg19
S'/usr/share/fonts/truetype/tlwg/Kinnari-Bold.ttf'
p1233
sg21
g22
sbag7
(g8
g9
NtRp1234
(dp1235
g12
g138
sg14
S'TlwgTypewriter'
p1236
sg16
I700
sg17
g13
sg18
g13
sg19
S'/usr/share/fonts/truetype/tlwg/TlwgTypewriter-BoldOblique.ttf'
p1237
sg21
g22
sbag7
(g8
g9
NtRp1238
(dp1239
g12
g13
sg14
S'Liberation Sans Narrow'
p1240
sg16
I700
sg17
g184
sg18
g13
sg19
S'/usr/share/fonts/truetype/liberation/LiberationSansNarrow-Bold.ttf'
p1241
sg21
g22
sbag7
(g8
g9
NtRp1242
(dp1243
g12
g13
sg14
S'TeX Gyre Chorus'
p1244
sg16
I400
sg17
g13
sg18
g13
sg19
S'/usr/share/texmf/fonts/opentype/public/tex-gyre/texgyrechorus-mediumitalic.otf'
p1245
sg21
g22
sbag7
(g8
g9
NtRp1246
(dp1247
g12
g13
sg14
S'FreeSerif'
p1248
sg16
I400
sg17
g13
sg18
g13
sg19
S'/usr/share/fonts/truetype/freefont/FreeSerif.ttf'
p1249
sg21
g22
sbag7
(g8
g9
NtRp1250
(dp1251
g12
g13
sg14
S'Latin Modern Roman Slanted'
p1252
sg16
I400
sg17
g13
sg18
g13
sg19
S'/usr/share/texmf/fonts/opentype/public/lm/lmromanslant10-regular.otf'
p1253
sg21
g22
sbag7
(g8
g9
NtRp1254
(dp1255
g12
g138
sg14
S'Sawasdee'
p1256
sg16
I700
sg17
g13
sg18
g13
sg19
S'/usr/share/fonts/truetype/tlwg/Sawasdee-BoldOblique.ttf'
p1257
sg21
g22
sbag7
(g8
g9
NtRp1258
(dp1259
g12
g13
sg14
S'Sawasdee'
p1260
sg16
I700
sg17
g13
sg18
g13
sg19
S'/usr/share/fonts/truetype/tlwg/Sawasdee-Bold.ttf'
p1261
sg21
g22
sbag7
(g8
g9
NtRp1262
(dp1263
g12
g13
sg14
S'Droid Sans Thai'
p1264
sg16
I400
sg17
g13
sg18
g13
sg19
S'/usr/share/fonts/truetype/droid/DroidSansThai.ttf'
p1265
sg21
g22
sbag7
(g8
g9
NtRp1266
(dp1267
g12
g138
sg14
S'Garuda'
p1268
sg16
I400
sg17
g13
sg18
g13
sg19
S'/usr/share/fonts/truetype/tlwg/Garuda-Oblique.ttf'
p1269
sg21
g22
sbag7
(g8
g9
NtRp1270
(dp1271
g12
g13
sg14
S'Lohit Gujarati'
p1272
sg16
I400
sg17
g13
sg18
g13
sg19
S'/usr/share/fonts/truetype/ttf-indic-fonts-core/lohit_gu.ttf'
p1273
sg21
g22
sbag7
(g8
g9
NtRp1274
(dp1275
g12
g13
sg14
S'Latin Modern Sans Quotation'
p1276
sg16
I700
sg17
g13
sg18
g13
sg19
S'/usr/share/texmf/fonts/opentype/public/lm/lmsansquot8-bold.otf'
p1277
sg21
g22
sbag7
(g8
g9
NtRp1278
(dp1279
g12
g13
sg14
S'NanumMyeongjo'
p1280
sg16
I400
sg17
g13
sg18
g13
sg19
S'/usr/share/fonts/truetype/nanum/NanumMyeongjo.ttf'
p1281
sg21
g22
sbag7
(g8
g9
NtRp1282
(dp1283
g12
g13
sg14
S'Loma'
p1284
sg16
I700
sg17
g13
sg18
g13
sg19
S'/usr/share/fonts/truetype/tlwg/Loma-Bold.ttf'
p1285
sg21
g22
sbag7
(g8
g9
NtRp1286
(dp1287
g12
g13
sg14
S'KacstPen'
p1288
sg16
I400
sg17
g13
sg18
g13
sg19
S'/usr/share/fonts/truetype/kacst/KacstPen.ttf'
p1289
sg21
g22
sbag7
(g8
g9
NtRp1290
(dp1291
g12
g13
sg14
S'Trebuchet MS'
p1292
sg16
I700
sg17
g13
sg18
g13
sg19
S'/usr/share/fonts/truetype/msttcorefonts/trebucbd.ttf'
p1293
sg21
g22
sbag7
(g8
g9
NtRp1294
(dp1295
g12
g29
sg14
S'FreeSerif'
p1296
sg16
I400
sg17
g13
sg18
g13
sg19
S'/usr/share/fonts/truetype/freefont/FreeSerifItalic.ttf'
p1297
sg21
g22
sbag7
(g8
g9
NtRp1298
(dp1299
g12
g13
sg14
S'Latin Modern Roman Slanted'
p1300
sg16
I700
sg17
g13
sg18
g13
sg19
S'/usr/share/texmf/fonts/opentype/public/lm/lmromanslant10-bold.otf'
p1301
sg21
g22
sbag7
(g8
g9
NtRp1302
(dp1303
g12
g138
sg14
S'Latin Modern Roman Caps'
p1304
sg16
I500
sg17
g13
sg18
g13
sg19
S'/usr/share/texmf/fonts/opentype/public/lm/lmromancaps10-oblique.otf'
p1305
sg21
g22
sbag7
(g8
g9
NtRp1306
(dp1307
g12
g29
sg14
S'TeX Gyre Adventor'
p1308
sg16
I400
sg17
g13
sg18
g13
sg19
S'/usr/share/texmf/fonts/opentype/public/tex-gyre/texgyreadventor-italic.otf'
p1309
sg21
g22
sbag7
(g8
g9
NtRp1310
(dp1311
g12
g13
sg14
S'Gooey'
p1312
sg16
I400
sg17
g13
sg18
g13
sg19
S'/usr/share/fonts/truetype/gooey.ttf'
p1313
sg21
g22
sbag7
(g8
g9
NtRp1314
(dp1315
g12
g13
sg14
S'Mallige'
p1316
sg16
I700
sg17
g13
sg18
g13
sg19
S'/usr/share/fonts/truetype/ttf-indic-fonts-core/Malige-b.ttf'
p1317
sg21
g22
sbag7
(g8
g9
NtRp1318
(dp1319
g12
g29
sg14
S'TeX Gyre Cursor'
p1320
sg16
I400
sg17
g13
sg18
g13
sg19
S'/usr/share/texmf/fonts/opentype/public/tex-gyre/texgyrecursor-italic.otf'
p1321
sg21
g22
sbag7
(g8
g9
NtRp1322
(dp1323
g12
g13
sg14
S'Latin Modern Roman'
p1324
sg16
I400
sg17
g13
sg18
g13
sg19
S'/usr/share/texmf/fonts/opentype/public/lm/lmroman6-regular.otf'
p1325
sg21
g22
sbag7
(g8
g9
NtRp1326
(dp1327
g12
g29
sg14
S'Verdana'
p1328
sg16
I400
sg17
g13
sg18
g13
sg19
S'/usr/share/fonts/truetype/msttcorefonts/verdanai.ttf'
p1329
sg21
g22
sbag7
(g8
g9
NtRp1330
(dp1331
g12
g13
sg14
S'Latin Modern Sans'
p1332
sg16
I400
sg17
g13
sg18
g13
sg19
S'/usr/share/texmf/fonts/opentype/public/lm/lmsans9-regular.otf'
p1333
sg21
g22
sbag7
(g8
g9
NtRp1334
(dp1335
g12
g138
sg14
S'Latin Modern Mono Light'
p1336
sg16
I200
sg17
g13
sg18
g13
sg19
S'/usr/share/texmf/fonts/opentype/public/lm/lmmonolt10-oblique.otf'
p1337
sg21
g22
sbag7
(g8
g9
NtRp1338
(dp1339
g12
g13
sg14
S'Droid Serif'
p1340
sg16
I700
sg17
g13
sg18
g13
sg19
S'/usr/share/fonts/truetype/droid/DroidSerif-Bold.ttf'
p1341
sg21
g22
sbag7
(g8
g9
NtRp1342
(dp1343
g12
g13
sg14
S'Meera'
p1344
sg16
I400
sg17
g13
sg18
g13
sg19
S'/usr/share/fonts/truetype/ttf-indic-fonts-core/Meera_04.ttf'
p1345
sg21
g22
sbag7
(g8
g9
NtRp1346
(dp1347
g12
g13
sg14
S'Floydian'
p1348
sg16
I400
sg17
g13
sg18
g13
sg19
S'/usr/share/fonts/truetype/floyd.TTF'
p1349
sg21
g22
sbag7
(g8
g9
NtRp1350
(dp1351
g12
g138
sg14
S'Umpush'
p1352
sg16
I200
sg17
g13
sg18
g13
sg19
S'/usr/share/fonts/truetype/tlwg/Umpush-LightOblique.ttf'
p1353
sg21
g22
sbag7
(g8
g9
NtRp1354
(dp1355
g12
g13
sg14
S'Tlwg Typo'
p1356
sg16
I400
sg17
g13
sg18
g13
sg19
S'/usr/share/fonts/truetype/tlwg/TlwgTypo.ttf'
p1357
sg21
g22
sbag7
(g8
g9
NtRp1358
(dp1359
g12
g13
sg14
S'Georgia'
p1360
sg16
I700
sg17
g13
sg18
g13
sg19
S'/usr/share/fonts/truetype/msttcorefonts/georgiab.ttf'
p1361
sg21
g22
sbag7
(g8
g9
NtRp1362
(dp1363
g12
g138
sg14
S'FreeSans'
p1364
sg16
I400
sg17
g13
sg18
g13
sg19
S'/usr/share/fonts/truetype/freefont/FreeSansOblique.ttf'
p1365
sg21
g22
sbag7
(g8
g9
NtRp1366
(dp1367
g12
g138
sg14
S'Latin Modern Roman Dunhill'
p1368
sg16
I500
sg17
g13
sg18
g13
sg19
S'/usr/share/texmf/fonts/opentype/public/lm/lmromandunh10-oblique.otf'
p1369
sg21
g22
sbag7
(g8
g9
NtRp1370
(dp1371
g12
g13
sg14
S'Liberation Sans'
p1372
sg16
I700
sg17
g13
sg18
g13
sg19
S'/usr/share/fonts/truetype/liberation/LiberationSans-Bold.ttf'
p1373
sg21
g22
sbag7
(g8
g9
NtRp1374
(dp1375
g12
g29
sg14
S'rsfs10'
p1376
sg16
I400
sg17
g13
sg18
g13
sg19
S'/usr/share/fonts/truetype/lyx/rsfs10.ttf'
p1377
sg21
g22
sbag7
(g8
g9
NtRp1378
(dp1379
g12
g13
sg14
S'Liberation Mono'
p1380
sg16
I400
sg17
g13
sg18
g13
sg19
S'/usr/share/fonts/truetype/liberation/LiberationMono-Regular.ttf'
p1381
sg21
g22
sbag7
(g8
g9
NtRp1382
(dp1383
g12
g29
sg14
S'TeX Gyre Bonum'
p1384
sg16
I400
sg17
g13
sg18
g13
sg19
S'/usr/share/texmf/fonts/opentype/public/tex-gyre/texgyrebonum-italic.otf'
p1385
sg21
g22
sbag7
(g8
g9
NtRp1386
(dp1387
g12
g13
sg14
S'Latin Modern Sans'
p1388
sg16
I400
sg17
g13
sg18
g13
sg19
S'/usr/share/texmf/fonts/opentype/public/lm/lmsans10-regular.otf'
p1389
sg21
g22
sbag7
(g8
g9
NtRp1390
(dp1391
g12
g29
sg14
S'Times New Roman'
p1392
sg16
I700
sg17
g13
sg18
g13
sg19
S'/usr/share/fonts/truetype/msttcorefonts/Times_New_Roman_Bold_Italic.ttf'
p1393
sg21
g22
sbag7
(g8
g9
NtRp1394
(dp1395
g12
g13
sg14
S'Garuda'
p1396
sg16
I400
sg17
g13
sg18
g13
sg19
S'/usr/share/fonts/truetype/tlwg/Garuda.ttf'
p1397
sg21
g22
sbag7
(g8
g9
NtRp1398
(dp1399
g12
g13
sg14
S'mry_KacstQurn'
p1400
sg16
I400
sg17
g13
sg18
g13
sg19
S'/usr/share/fonts/truetype/kacst/mry_KacstQurn.ttf'
p1401
sg21
g22
sbag7
(g8
g9
NtRp1402
(dp1403
g12
g138
sg14
S'Latin Modern Sans'
p1404
sg16
I400
sg17
g13
sg18
g13
sg19
S'/usr/share/texmf/fonts/opentype/public/lm/lmsans10-oblique.otf'
p1405
sg21
g22
sbag7
(g8
g9
NtRp1406
(dp1407
g12
g13
sg14
S'Tibetan Machine Uni'
p1408
sg16
I400
sg17
g13
sg18
g13
sg19
S'/usr/share/fonts/truetype/tibetan-machine/TibetanMachineUni.ttf'
p1409
sg21
g22
sbag7
(g8
g9
NtRp1410
(dp1411
g12
g13
sg14
S'Latin Modern Sans Quotation'
p1412
sg16
I400
sg17
g13
sg18
g13
sg19
S'/usr/share/texmf/fonts/opentype/public/lm/lmsansquot8-regular.otf'
p1413
sg21
g22
sbag7
(g8
g9
NtRp1414
(dp1415
g12
g13
sg14
S'KacstOne'
p1416
sg16
I700
sg17
g13
sg18
g13
sg19
S'/usr/share/fonts/truetype/kacst-one/KacstOne-Bold.ttf'
p1417
sg21
g22
sbag7
(g8
g9
NtRp1418
(dp1419
g12
g13
sg14
S'UnGraphic'
p1420
sg16
I400
sg17
g13
sg18
g13
sg19
S'/usr/share/fonts/truetype/unfonts-core/UnGraphic.ttf'
p1421
sg21
g22
sbag7
(g8
g9
NtRp1422
(dp1423
g12
g13
sg14
S'Latin Modern Sans'
p1424
sg16
I400
sg17
g13
sg18
g13
sg19
S'/usr/share/texmf/fonts/opentype/public/lm/lmsans8-regular.otf'
p1425
sg21
g22
sbag7
(g8
g9
NtRp1426
(dp1427
g12
g13
sg14
S'KacstDigital'
p1428
sg16
I400
sg17
g13
sg18
g13
sg19
S'/usr/share/fonts/truetype/kacst/KacstDigital.ttf'
p1429
sg21
g22
sbag7
(g8
g9
NtRp1430
(dp1431
g12
g13
sg14
S'eufm10'
p1432
sg16
I400
sg17
g13
sg18
g13
sg19
S'/usr/share/fonts/truetype/lyx/eufm10.ttf'
p1433
sg21
g22
sbag7
(g8
g9
NtRp1434
(dp1435
g12
g13
sg14
S'esint10'
p1436
sg16
I400
sg17
g13
sg18
g13
sg19
S'/usr/share/fonts/truetype/lyx/esint10.ttf'
p1437
sg21
g22
sbag7
(g8
g9
NtRp1438
(dp1439
g12
g13
sg14
S'Latin Modern Roman'
p1440
sg16
I400
sg17
g13
sg18
g13
sg19
S'/usr/share/texmf/fonts/opentype/public/lm/lmroman17-regular.otf'
p1441
sg21
g22
sbag7
(g8
g9
NtRp1442
(dp1443
g12
g29
sg14
S'Liberation Serif'
p1444
sg16
I400
sg17
g13
sg18
g13
sg19
S'/usr/share/fonts/truetype/ttf-liberation/LiberationSerif-Italic.ttf'
p1445
sg21
g22
sbag7
(g8
g9
NtRp1446
(dp1447
g12
g13
sg14
S'Comic Sans MS'
p1448
sg16
I700
sg17
g13
sg18
g13
sg19
S'/usr/share/fonts/truetype/msttcorefonts/comicbd.ttf'
p1449
sg21
g22
sbag7
(g8
g9
NtRp1450
(dp1451
g12
g13
sg14
S'TeX Gyre Schola'
p1452
sg16
I400
sg17
g13
sg18
g13
sg19
S'/usr/share/texmf/fonts/opentype/public/tex-gyre/texgyreschola-regular.otf'
p1453
sg21
g22
sbag7
(g8
g9
NtRp1454
(dp1455
g12
g29
sg14
S'Verdana'
p1456
sg16
I400
sg17
g13
sg18
g13
sg19
S'/usr/share/fonts/truetype/msttcorefonts/Verdana_Italic.ttf'
p1457
sg21
g22
sbag7
(g8
g9
NtRp1458
(dp1459
g12
g138
sg14
S'Latin Modern Roman Demi'
p1460
sg16
I600
sg17
g13
sg18
g13
sg19
S'/usr/share/texmf/fonts/opentype/public/lm/lmromandemi10-oblique.otf'
p1461
sg21
g22
sbag7
(g8
g9
NtRp1462
(dp1463
g12
g13
sg14
S'Verdana'
p1464
sg16
I400
sg17
g13
sg18
g13
sg19
S'/usr/share/fonts/truetype/msttcorefonts/verdana.ttf'
p1465
sg21
g22
sbag7
(g8
g9
NtRp1466
(dp1467
g12
g13
sg14
S'Droid Sans Georgian'
p1468
sg16
I400
sg17
g13
sg18
g13
sg19
S'/usr/share/fonts/truetype/droid/DroidSansGeorgian.ttf'
p1469
sg21
g22
sbag7
(g8
g9
NtRp1470
(dp1471
g12
g13
sg14
S'Comic Sans MS'
p1472
sg16
I700
sg17
g13
sg18
g13
sg19
S'/usr/share/fonts/truetype/msttcorefonts/Comic_Sans_MS_Bold.ttf'
p1473
sg21
g22
sbag7
(g8
g9
NtRp1474
(dp1475
g12
g13
sg14
S'Latin Modern Mono Light'
p1476
sg16
I400
sg17
g13
sg18
g13
sg19
S'/usr/share/texmf/fonts/opentype/public/lm/lmmonolt10-regular.otf'
p1477
sg21
g22
sbag7
(g8
g9
NtRp1478
(dp1479
g12
g138
sg14
S'Latin Modern Mono Prop Light'
p1480
sg16
I200
sg17
g13
sg18
g13
sg19
S'/usr/share/texmf/fonts/opentype/public/lm/lmmonoproplt10-oblique.otf'
p1481
sg21
g22
sbag7
(g8
g9
NtRp1482
(dp1483
g12
g13
sg14
S'Latin Modern Roman'
p1484
sg16
I700
sg17
g13
sg18
g13
sg19
S'/usr/share/texmf/fonts/opentype/public/lm/lmroman5-bold.otf'
p1485
sg21
g22
sbag7
(g8
g9
NtRp1486
(dp1487
g12
g13
sg14
S'Padauk'
p1488
sg16
I700
sg17
g13
sg18
g13
sg19
S'/usr/share/fonts/truetype/padauk/Padauk-bold.ttf'
p1489
sg21
g22
sbag7
(g8
g9
NtRp1490
(dp1491
g12
g29
sg14
S'Courier New'
p1492
sg16
I400
sg17
g13
sg18
g13
sg19
S'/usr/share/fonts/truetype/msttcorefonts/couri.ttf'
p1493
sg21
g22
sbag7
(g8
g9
NtRp1494
(dp1495
g12
g13
sg14
S'Rekha'
p1496
sg16
I400
sg17
g13
sg18
g13
sg19
S'/usr/share/fonts/truetype/ttf-indic-fonts-core/Rekha.ttf'
p1497
sg21
g22
sbag7
(g8
g9
NtRp1498
(dp1499
g12
g138
sg14
S'Loma'
p1500
sg16
I400
sg17
g13
sg18
g13
sg19
S'/usr/share/fonts/truetype/tlwg/Loma-Oblique.ttf'
p1501
sg21
g22
sbag7
(g8
g9
NtRp1502
(dp1503
g12
g138
sg14
S'Garuda'
p1504
sg16
I700
sg17
g13
sg18
g13
sg19
S'/usr/share/fonts/truetype/tlwg/Garuda-BoldOblique.ttf'
p1505
sg21
g22
sbag7
(g8
g9
NtRp1506
(dp1507
g12
g13
sg14
S'TeX Gyre Pagella'
p1508
sg16
I700
sg17
g13
sg18
g13
sg19
S'/usr/share/texmf/fonts/opentype/public/tex-gyre/texgyrepagella-bold.otf'
p1509
sg21
g22
sbag7
(g8
g9
NtRp1510
(dp1511
g12
g13
sg14
S'Arial Black'
p1512
sg16
I900
sg17
g13
sg18
g13
sg19
S'/usr/share/fonts/truetype/msttcorefonts/ariblk.ttf'
p1513
sg21
g22
sbag7
(g8
g9
NtRp1514
(dp1515
g12
g29
sg14
S'Verdana'
p1516
sg16
I700
sg17
g13
sg18
g13
sg19
S'/usr/share/fonts/truetype/msttcorefonts/Verdana_Bold_Italic.ttf'
p1517
sg21
g22
sbag7
(g8
g9
NtRp1518
(dp1519
g12
g13
sg14
S'OpenSymbol'
p1520
sg16
I400
sg17
g13
sg18
g13
sg19
S'/usr/share/fonts/truetype/openoffice/opens___.ttf'
p1521
sg21
g22
sbag7
(g8
g9
NtRp1522
(dp1523
g12
g13
sg14
S'Latin Modern Mono Light'
p1524
sg16
I700
sg17
g13
sg18
g13
sg19
S'/usr/share/texmf/fonts/opentype/public/lm/lmmonolt10-bold.otf'
p1525
sg21
g22
sbag7
(g8
g9
NtRp1526
(dp1527
g12
g13
sg14
S'Verdana'
p1528
sg16
I700
sg17
g13
sg18
g13
sg19
S'/usr/share/fonts/truetype/msttcorefonts/Verdana_Bold.ttf'
p1529
sg21
g22
sbag7
(g8
g9
NtRp1530
(dp1531
g12
g138
sg14
S'Umpush'
p1532
sg16
I700
sg17
g13
sg18
g13
sg19
S'/usr/share/fonts/truetype/tlwg/Umpush-BoldOblique.ttf'
p1533
sg21
g22
sbag7
(g8
g9
NtRp1534
(dp1535
g12
g13
sg14
S'UnPilgi'
p1536
sg16
I400
sg17
g13
sg18
g13
sg19
S'/usr/share/fonts/truetype/unfonts-core/UnPilgi.ttf'
p1537
sg21
g22
sbag7
(g8
g9
NtRp1538
(dp1539
g12
g29
sg14
S'Droid Serif'
p1540
sg16
I400
sg17
g13
sg18
g13
sg19
S'/usr/share/fonts/truetype/droid/DroidSerif-Italic.ttf'
p1541
sg21
g22
sbag7
(g8
g9
NtRp1542
(dp1543
g12
g13
sg14
S'Tlwg Typo'
p1544
sg16
I700
sg17
g13
sg18
g13
sg19
S'/usr/share/fonts/truetype/tlwg/TlwgTypo-Bold.ttf'
p1545
sg21
g22
sbag7
(g8
g9
NtRp1546
(dp1547
g12
g29
sg14
S'Arial'
p1548
sg16
I400
sg17
g13
sg18
g13
sg19
S'/usr/share/fonts/truetype/msttcorefonts/Arial_Italic.ttf'
p1549
sg21
g22
sbag7
(g8
g9
NtRp1550
(dp1551
g12
g13
sg14
S'TlwgTypewriter'
p1552
sg16
I700
sg17
g13
sg18
g13
sg19
S'/usr/share/fonts/truetype/tlwg/TlwgTypewriter-Bold.ttf'
p1553
sg21
g22
sbag7
(g8
g9
NtRp1554
(dp1555
g12
g138
sg14
S'Waree'
p1556
sg16
I700
sg17
g13
sg18
g13
sg19
S'/usr/share/fonts/truetype/tlwg/Waree-BoldOblique.ttf'
p1557
sg21
g22
sbag7
(g8
g9
NtRp1558
(dp1559
g12
g13
sg14
S'Waree'
p1560
sg16
I700
sg17
g13
sg18
g13
sg19
S'/usr/share/fonts/truetype/tlwg/Waree-Bold.ttf'
p1561
sg21
g22
sbag7
(g8
g9
NtRp1562
(dp1563
g12
g29
sg14
S'FreeSerif'
p1564
sg16
I700
sg17
g13
sg18
g13
sg19
S'/usr/share/fonts/truetype/freefont/FreeSerifBoldItalic.ttf'
p1565
sg21
g22
sbag7
(g8
g9
NtRp1566
(dp1567
g12
g13
sg14
S'Comic Sans MS'
p1568
sg16
I400
sg17
g13
sg18
g13
sg19
S'/usr/share/fonts/truetype/msttcorefonts/comic.ttf'
p1569
sg21
g22
sbag7
(g8
g9
NtRp1570
(dp1571
g12
g138
sg14
S'Latin Modern Mono Caps'
p1572
sg16
I400
sg17
g13
sg18
g13
sg19
S'/usr/share/texmf/fonts/opentype/public/lm/lmmonocaps10-oblique.otf'
p1573
sg21
g22
sbag7
(g8
g9
NtRp1574
(dp1575
g12
g13
sg14
S'TG Termes Math'
p1576
sg16
I400
sg17
g13
sg18
g13
sg19
S'/usr/share/texmf/fonts/opentype/public/tex-gyre-math/texgyretermes-math.otf'
p1577
sg21
g22
sbag7
(g8
g9
NtRp1578
(dp1579
g12
g138
sg14
S'Tlwg Typo'
p1580
sg16
I400
sg17
g13
sg18
g13
sg19
S'/usr/share/fonts/truetype/tlwg/TlwgTypo-Oblique.ttf'
p1581
sg21
g22
sbag7
(g8
g9
NtRp1582
(dp1583
g12
g13
sg14
S'Droid Sans'
p1584
sg16
I700
sg17
g13
sg18
g13
sg19
S'/usr/share/fonts/truetype/droid/DroidSans-Bold.ttf'
p1585
sg21
g22
sbag7
(g8
g9
NtRp1586
(dp1587
g12
g13
sg14
S'Latin Modern Mono Prop Light'
p1588
sg16
I700
sg17
g13
sg18
g13
sg19
S'/usr/share/texmf/fonts/opentype/public/lm/lmmonoproplt10-bold.otf'
p1589
sg21
g22
sbag7
(g8
g9
NtRp1590
(dp1591
g12
g13
sg14
S'Arial'
p1592
sg16
I700
sg17
g13
sg18
g13
sg19
S'/usr/share/fonts/truetype/msttcorefonts/arialbd.ttf'
p1593
sg21
g22
sbag7
(g8
g9
NtRp1594
(dp1595
g12
g29
sg14
S'Ubuntu'
p1596
sg16
I500
sg17
g13
sg18
g13
sg19
S'/usr/share/fonts/truetype/ubuntu-font-family/Ubuntu-MI.ttf'
p1597
sg21
g22
sbag7
(g8
g9
NtRp1598
(dp1599
g12
g13
sg14
S'Kedage'
p1600
sg16
I400
sg17
g13
sg18
g13
sg19
S'/usr/share/fonts/truetype/ttf-indic-fonts-core/Kedage-n.ttf'
p1601
sg21
g22
sbag7
(g8
g9
NtRp1602
(dp1603
g12
g13
sg14
S'Arial'
p1604
sg16
I400
sg17
g13
sg18
g13
sg19
S'/usr/share/fonts/truetype/msttcorefonts/arial.ttf'
p1605
sg21
g22
sbag7
(g8
g9
NtRp1606
(dp1607
g12
g13
sg14
S'Latin Modern Roman Unslanted'
p1608
sg16
I400
sg17
g13
sg18
g13
sg19
S'/usr/share/texmf/fonts/opentype/public/lm/lmromanunsl10-regular.otf'
p1609
sg21
g22
sbag7
(g8
g9
NtRp1610
(dp1611
g12
g138
sg14
S'Latin Modern Sans'
p1612
sg16
I400
sg17
g13
sg18
g13
sg19
S'/usr/share/texmf/fonts/opentype/public/lm/lmsans9-oblique.otf'
p1613
sg21
g22
sbag7
(g8
g9
NtRp1614
(dp1615
g12
g13
sg14
S'TeX Gyre Bonum'
p1616
sg16
I400
sg17
g13
sg18
g13
sg19
S'/usr/share/texmf/fonts/opentype/public/tex-gyre/texgyrebonum-regular.otf'
p1617
sg21
g22
sbag7
(g8
g9
NtRp1618
(dp1619
g12
g13
sg14
S'Padauk Book'
p1620
sg16
I400
sg17
g13
sg18
g13
sg19
S'/usr/share/fonts/truetype/padauk/Padauk-book.ttf'
p1621
sg21
g22
sbag7
(g8
g9
NtRp1622
(dp1623
g12
g29
sg14
S'Arial'
p1624
sg16
I700
sg17
g13
sg18
g13
sg19
S'/usr/share/fonts/truetype/msttcorefonts/Arial_Bold_Italic.ttf'
p1625
sg21
g22
sbag7
(g8
g9
NtRp1626
(dp1627
g12
g13
sg14
S'KacstOffice'
p1628
sg16
I400
sg17
g13
sg18
g13
sg19
S'/usr/share/fonts/truetype/kacst/KacstOffice.ttf'
p1629
sg21
g22
sbag7
(g8
g9
NtRp1630
(dp1631
g12
g13
sg14
S'Abyssinica SIL'
p1632
sg16
I400
sg17
g13
sg18
g13
sg19
S'/usr/share/fonts/truetype/abyssinica/AbyssinicaSIL-R.ttf'
p1633
sg21
g22
sbag7
(g8
g9
NtRp1634
(dp1635
g12
g13
sg14
S'Loma'
p1636
sg16
I400
sg17
g13
sg18
g13
sg19
S'/usr/share/fonts/truetype/tlwg/Loma.ttf'
p1637
sg21
g22
sbag7
(g8
g9
NtRp1638
(dp1639
g12
g29
sg14
S'Trebuchet MS'
p1640
sg16
I700
sg17
g13
sg18
g13
sg19
S'/usr/share/fonts/truetype/msttcorefonts/Trebuchet_MS_Bold_Italic.ttf'
p1641
sg21
g22
sbag7
(g8
g9
NtRp1642
(dp1643
g12
g13
sg14
S'Droid Arabic Naskh'
p1644
sg16
I700
sg17
g13
sg18
g13
sg19
S'/usr/share/fonts/truetype/droid/DroidNaskh-Bold.ttf'
p1645
sg21
g22
sbag7
(g8
g9
NtRp1646
(dp1647
g12
g138
sg14
S'Latin Modern Sans'
p1648
sg16
I400
sg17
g13
sg18
g13
sg19
S'/usr/share/texmf/fonts/opentype/public/lm/lmsans17-oblique.otf'
p1649
sg21
g22
sbag7
(g8
g9
NtRp1650
(dp1651
g12
g138
sg14
S'Tlwg Typo'
p1652
sg16
I700
sg17
g13
sg18
g13
sg19
S'/usr/share/fonts/truetype/tlwg/TlwgTypo-BoldOblique.ttf'
p1653
sg21
g22
sbag7
(g8
g9
NtRp1654
(dp1655
g12
g13
sg14
S'KacstTitleL'
p1656
sg16
I400
sg17
g13
sg18
g13
sg19
S'/usr/share/fonts/truetype/kacst/KacstTitleL.ttf'
p1657
sg21
g22
sbag7
(g8
g9
NtRp1658
(dp1659
g12
g13
sg14
S'Times New Roman'
p1660
sg16
I700
sg17
g13
sg18
g13
sg19
S'/usr/share/fonts/truetype/msttcorefonts/Times_New_Roman_Bold.ttf'
p1661
sg21
g22
sbag7
(g8
g9
NtRp1662
(dp1663
g12
g13
sg14
S'Droid Sans Hebrew'
p1664
sg16
I400
sg17
g13
sg18
g13
sg19
S'/usr/share/fonts/truetype/droid/DroidSansHebrew-Regular.ttf'
p1665
sg21
g22
sbasS'defaultFamily'
p1666
(dp1667
S'afm'
p1668
S'Helvetica'
p1669
sS'ttf'
p1670
S'Bitstream Vera Sans'
p1671
ssS'ttffiles'
p1672
(lp1673
S'/usr/share/matplotlib/mpl-data/fonts/ttf/cmb10.ttf'
p1674
aS'/usr/share/matplotlib/mpl-data/fonts/ttf/cmex10.ttf'
p1675
aS'/usr/share/matplotlib/mpl-data/fonts/ttf/STIXNonUniIta.ttf'
p1676
aS'/usr/share/matplotlib/mpl-data/fonts/ttf/STIXNonUni.ttf'
p1677
aS'/usr/share/matplotlib/mpl-data/fonts/ttf/STIXSizThreeSymReg.ttf'
p1678
aS'/usr/share/matplotlib/mpl-data/fonts/ttf/STIXSizTwoSymBol.ttf'
p1679
aS'/usr/share/matplotlib/mpl-data/fonts/ttf/cmtt10.ttf'
p1680
aS'/usr/share/matplotlib/mpl-data/fonts/ttf/STIXGeneral.ttf'
p1681
aS'/usr/share/matplotlib/mpl-data/fonts/ttf/STIXNonUniBolIta.ttf'
p1682
aS'/usr/share/matplotlib/mpl-data/fonts/ttf/STIXSizFiveSymReg.ttf'
p1683
aS'/usr/share/matplotlib/mpl-data/fonts/ttf/STIXSizOneSymBol.ttf'
p1684
aS'/usr/share/matplotlib/mpl-data/fonts/ttf/STIXGeneralBol.ttf'
p1685
aS'/usr/share/matplotlib/mpl-data/fonts/ttf/cmr10.ttf'
p1686
aS'/usr/share/matplotlib/mpl-data/fonts/ttf/STIXSizTwoSymReg.ttf'
p1687
aS'/usr/share/matplotlib/mpl-data/fonts/ttf/STIXSizOneSymReg.ttf'
p1688
aS'/usr/share/matplotlib/mpl-data/fonts/ttf/cmsy10.ttf'
p1689
aS'/usr/share/matplotlib/mpl-data/fonts/ttf/STIXSizThreeSymBol.ttf'
p1690
aS'/usr/share/matplotlib/mpl-data/fonts/ttf/cmss10.ttf'
p1691
aS'/usr/share/matplotlib/mpl-data/fonts/ttf/STIXSizFourSymBol.ttf'
p1692
aS'/usr/share/matplotlib/mpl-data/fonts/ttf/STIXGeneralItalic.ttf'
p1693
aS'/usr/share/matplotlib/mpl-data/fonts/ttf/cmmi10.ttf'
p1694
aS'/usr/share/matplotlib/mpl-data/fonts/ttf/STIXNonUniBol.ttf'
p1695
aS'/usr/share/matplotlib/mpl-data/fonts/ttf/STIXGeneralBolIta.ttf'
p1696
aS'/usr/share/matplotlib/mpl-data/fonts/ttf/STIXSizFourSymReg.ttf'
p1697
aS'/usr/share/fonts/truetype/kacst/KacstTitle.ttf'
p1698
aS'/usr/share/texmf/fonts/opentype/public/lm/lmroman8-italic.otf'
p1699
aS'/usr/share/texmf/fonts/opentype/public/lm/lmmonocaps10-regular.otf'
p1700
aS'/usr/share/fonts/truetype/kacst/KacstScreen.ttf'
p1701
aS'/usr/share/fonts/truetype/droid/DroidSansEthiopic-Bold.ttf'
p1702
aS'/usr/share/fonts/truetype/tlwg/Norasi-Oblique.ttf'
p1703
aS'/usr/share/texmf/fonts/opentype/public/lm/lmroman10-italic.otf'
p1704
aS'/usr/share/fonts/truetype/Black Oak.ttf'
p1705
aS'/usr/share/fonts/truetype/plasdrip.ttf'
p1706
aS'/usr/share/fonts/truetype/fonts-japanese-gothic.ttf'
p1707
aS'/usr/share/fonts/truetype/ttf-liberation/LiberationSerif-Regular.ttf'
p1708
aS'/usr/share/fonts/truetype/unfonts-core/UnDotum.ttf'
p1709
aS'/usr/share/fonts/truetype/tlwg/Waree-Oblique.ttf'
p1710
aS'/usr/share/texmf/fonts/opentype/public/tex-gyre/texgyretermes-bolditalic.otf'
p1711
aS'/usr/share/fonts/truetype/lyx/cmmi10.ttf'
p1712
aS'/usr/share/texmf/fonts/opentype/public/tex-gyre/texgyrepagella-italic.otf'
p1713
aS'/usr/share/fonts/truetype/msttcorefonts/Georgia_Bold_Italic.ttf'
p1714
aS'/usr/share/fonts/truetype/dejavu/DejaVuSerifCondensed-Bold.ttf'
p1715
aS'/usr/share/fonts/truetype/ttf-dejavu/DejaVuSans-Oblique.ttf'
p1716
aS'/usr/share/fonts/truetype/ttf-dejavu/DejaVuSans-BoldOblique.ttf'
p1717
aS'/usr/share/texmf/fonts/opentype/public/lm/lmroman12-regular.otf'
p1718
aS'/usr/share/fonts/truetype/tlwg/TlwgTypist.ttf'
p1719
aS'/usr/share/fonts/truetype/nanum/NanumGothic.ttf'
p1720
aS'/usr/share/fonts/truetype/msttcorefonts/Impact.ttf'
p1721
aS'/usr/share/fonts/truetype/droid/DroidNaskh-Regular.ttf'
p1722
aS'/usr/share/fonts/truetype/msttcorefonts/andalemo.ttf'
p1723
aS'/usr/share/fonts/truetype/msttcorefonts/arialbi.ttf'
p1724
aS'/usr/share/fonts/truetype/liberation/LiberationSans-Italic.ttf'
p1725
aS'/usr/share/fonts/truetype/dejavu/DejaVuSansMono-Oblique.ttf'
p1726
aS'/usr/share/texmf/fonts/opentype/public/lm/lmroman12-bold.otf'
p1727
aS'/usr/share/fonts/truetype/unfonts-core/UnBatang.ttf'
p1728
aS'/usr/share/texmf/fonts/opentype/public/tex-gyre/texgyrecursor-regular.otf'
p1729
aS'/usr/share/fonts/truetype/msttcorefonts/courbd.ttf'
p1730
aS'/usr/share/fonts/truetype/msttcorefonts/Trebuchet_MS.ttf'
p1731
aS'/usr/share/fonts/truetype/droid/DroidSansHebrew-Bold.ttf'
p1732
aS'/usr/share/fonts/truetype/dejavu/DejaVuSerif-BoldItalic.ttf'
p1733
aS'/usr/share/fonts/truetype/ttf-dejavu/DejaVuSerifCondensed-Bold.ttf'
p1734
aS'/usr/share/fonts/truetype/ubuntu-font-family/UbuntuMono-R.ttf'
p1735
aS'/usr/share/fonts/truetype/msttcorefonts/Trebuchet_MS_Italic.ttf'
p1736
aS'/usr/share/fonts/truetype/ttf-liberation/LiberationSerif-Bold.ttf'
p1737
aS'/usr/share/fonts/truetype/unfonts-core/UnDinaru.ttf'
p1738
aS'/usr/share/fonts/truetype/droid/DroidSerif-Regular.ttf'
p1739
aS'/usr/share/texmf/fonts/opentype/public/lm/lmroman5-regular.otf'
p1740
aS'/usr/share/fonts/truetype/msttcorefonts/Arial.ttf'
p1741
aS'/usr/share/fonts/truetype/msttcorefonts/times.ttf'
p1742
aS'/usr/share/fonts/truetype/unfonts-core/UnGraphicBold.ttf'
p1743
aS'/usr/share/texmf/fonts/opentype/public/lm/lmmono10-italic.otf'
p1744
aS'/usr/share/fonts/truetype/kacst/KacstNaskh.ttf'
p1745
aS'/usr/share/fonts/truetype/msttcorefonts/trebuc.ttf'
p1746
aS'/usr/share/fonts/truetype/tlwg/Kinnari-BoldItalic.ttf'
p1747
aS'/usr/share/fonts/truetype/tlwg/Sawasdee.ttf'
p1748
aS'/usr/share/fonts/truetype/dejavu/DejaVuSansMono-BoldOblique.ttf'
p1749
aS'/usr/share/fonts/truetype/unfonts-core/UnDinaruBold.ttf'
p1750
aS'/usr/share/fonts/truetype/freefont/FreeSansBold.ttf'
p1751
aS'/usr/share/texmf/fonts/opentype/public/tex-gyre/texgyreheroscn-regular.otf'
p1752
aS'/usr/share/texmf/fonts/opentype/public/lm/lmmono8-regular.otf'
p1753
aS'/usr/share/fonts/truetype/tlwg/Purisa-Bold.ttf'
p1754
aS'/usr/share/fonts/truetype/tlwg/TlwgTypist-Bold.ttf'
p1755
aS'/usr/share/texmf/fonts/opentype/public/lm/lmmonoprop10-oblique.otf'
p1756
aS'/usr/share/fonts/truetype/kacst/KacstPoster.ttf'
p1757
aS'/usr/share/fonts/truetype/tlwg/Purisa.ttf'
p1758
aS'/usr/share/texmf/fonts/opentype/public/lm/lmromandunh10-regular.otf'
p1759
aS'/usr/share/fonts/truetype/msttcorefonts/Georgia_Italic.ttf'
p1760
aS'/usr/share/fonts/truetype/ubuntu-font-family/Ubuntu-LI.ttf'
p1761
aS'/usr/share/fonts/truetype/droid/DroidSansMono.ttf'
p1762
aS'/usr/share/fonts/truetype/tlwg/Umpush-Oblique.ttf'
p1763
aS'/usr/share/fonts/truetype/nanum/NanumGothicBold.ttf'
p1764
aS'/usr/share/fonts/truetype/liberation/LiberationMono-BoldItalic.ttf'
p1765
aS'/usr/share/fonts/truetype/arcanum_b.ttf'
p1766
aS'/usr/share/fonts/truetype/ttf-dejavu/DejaVuSerifCondensed-BoldItalic.ttf'
p1767
aS'/usr/share/fonts/truetype/ubuntu-font-family/UbuntuMono-B.ttf'
p1768
aS'/usr/share/fonts/truetype/lyx/cmsy10.ttf'
p1769
aS'/usr/share/texmf/fonts/opentype/public/tex-gyre/texgyrebonum-bold.otf'
p1770
aS'/usr/share/fonts/truetype/tlwg/Norasi-Italic.ttf'
p1771
aS'/usr/share/fonts/truetype/droid/DroidSansFallbackFull.ttf'
p1772
aS'/usr/share/fonts/truetype/ttf-khmeros-core/KhmerOSsys.ttf'
p1773
aS'/usr/share/fonts/truetype/tlwg/TlwgTypist-Oblique.ttf'
p1774
aS'/usr/share/fonts/truetype/tlwg/Norasi.ttf'
p1775
aS'/usr/share/fonts/truetype/dejavu/DejaVuSerif.ttf'
p1776
aS'/usr/share/texmf/fonts/opentype/public/lm/lmroman12-italic.otf'
p1777
aS'/usr/share/fonts/truetype/ttf-indic-fonts-core/MuktiNarrowBold.ttf'
p1778
aS'/usr/share/fonts/truetype/msttcorefonts/verdanab.ttf'
p1779
aS'/usr/share/texmf/fonts/opentype/public/lm/lmsans12-regular.otf'
p1780
aS'/usr/share/fonts/truetype/dejavu/DejaVuSans-Bold.ttf'
p1781
aS'/usr/share/fonts/truetype/ubuntu-font-family/Ubuntu-RI.ttf'
p1782
aS'/usr/share/fonts/truetype/nanum/NanumBarunGothic.ttf'
p1783
aS'/usr/share/texmf/fonts/opentype/public/lm/lmroman7-italic.otf'
p1784
aS'/usr/share/fonts/truetype/unfonts-core/UnDinaruLight.ttf'
p1785
aS'/usr/share/texmf/fonts/opentype/public/lm-math/latinmodernmath-regular.otf'
p1786
aS'/usr/share/fonts/truetype/arcanum.ttf'
p1787
aS'/usr/share/texmf/fonts/opentype/public/lm/lmroman9-italic.otf'
p1788
aS'/usr/share/fonts/truetype/Beurk___.ttf'
p1789
aS'/usr/share/fonts/truetype/liberation/LiberationSerif-Regular.ttf'
p1790
aS'/usr/share/fonts/truetype/ttf-indic-fonts-core/lohit_ta.ttf'
p1791
aS'/usr/share/fonts/truetype/tlwg/Kinnari.ttf'
p1792
aS'/usr/share/fonts/truetype/ubuntu-font-family/UbuntuMono-BI.ttf'
p1793
aS'/usr/share/fonts/truetype/msttcorefonts/timesbd.ttf'
p1794
aS'/usr/share/texmf/fonts/opentype/public/tex-gyre/texgyrepagella-regular.otf'
p1795
aS'/usr/share/fonts/truetype/msttcorefonts/Trebuchet_MS_Bold.ttf'
p1796
aS'/usr/share/texmf/fonts/opentype/public/lm/lmroman8-bold.otf'
p1797
aS'/usr/share/texmf/fonts/opentype/public/lm/lmmono10-regular.otf'
p1798
aS'/usr/share/fonts/truetype/tlwg/TlwgMono.ttf'
p1799
aS'/usr/share/texmf/fonts/opentype/public/lm/lmromancaps10-regular.otf'
p1800
aS'/usr/share/fonts/truetype/msttcorefonts/Arial_Bold.ttf'
p1801
aS'/usr/share/fonts/truetype/msttcorefonts/timesbi.ttf'
p1802
aS'/usr/share/fonts/truetype/tlwg/Purisa-Oblique.ttf'
p1803
aS'/usr/share/fonts/truetype/tlwg/Kinnari-Italic.ttf'
p1804
aS'/usr/share/fonts/truetype/ttf-dejavu/DejaVuSerifCondensed.ttf'
p1805
aS'/usr/share/fonts/truetype/freefont/FreeMonoBold.ttf'
p1806
aS'/usr/share/fonts/truetype/msttcorefonts/impact.ttf'
p1807
aS'/usr/share/fonts/truetype/ubuntu-font-family/UbuntuMono-RI.ttf'
p1808
aS'/usr/share/fonts/truetype/dejavu/DejaVuSansCondensed-Bold.ttf'
p1809
aS'/usr/share/texmf/fonts/opentype/public/tex-gyre/texgyreheroscn-bold.otf'
p1810
aS'/usr/share/texmf/fonts/opentype/public/lm/lmmonoproplt10-boldoblique.otf'
p1811
aS'/usr/share/fonts/truetype/ubuntu-font-family/Ubuntu-M.ttf'
p1812
aS'/usr/share/fonts/truetype/arcanum_i.ttf'
p1813
aS'/usr/share/fonts/truetype/tlwg/Garuda-Bold.ttf'
p1814
aS'/usr/share/fonts/truetype/ttf-liberation/LiberationSans-Italic.ttf'
p1815
aS'/usr/share/fonts/truetype/kacst/KacstLetter.ttf'
p1816
aS'/usr/share/fonts/truetype/LEVIBRUSH.TTF'
p1817
aS'/usr/share/fonts/truetype/msttcorefonts/verdanaz.ttf'
p1818
aS'/usr/share/fonts/truetype/ubuntu-font-family/Ubuntu-BI.ttf'
p1819
aS'/usr/share/fonts/truetype/ttf-indic-fonts-core/Rachana_04.ttf'
p1820
aS'/usr/share/fonts/truetype/ttf-dejavu/DejaVuSerif-Italic.ttf'
p1821
aS'/usr/share/fonts/truetype/dejavu/DejaVuSans-Oblique.ttf'
p1822
aS'/usr/share/fonts/truetype/droid/DroidSansArmenian.ttf'
p1823
aS'/usr/share/fonts/truetype/dejavu/DejaVuSansMono-Bold.ttf'
p1824
aS'/usr/share/fonts/truetype/MystikOrbs.ttf'
p1825
aS'/usr/share/fonts/truetype/dejavu/DejaVuSansCondensed-Oblique.ttf'
p1826
aS'/usr/share/fonts/truetype/nanum/NanumBarunGothicBold.ttf'
p1827
aS'/usr/share/fonts/truetype/ttf-dejavu/DejaVuSansCondensed-BoldOblique.ttf'
p1828
aS'/usr/share/texmf/fonts/opentype/public/tex-gyre/texgyrebonum-bolditalic.otf'
p1829
aS'/usr/share/fonts/truetype/ttf-dejavu/DejaVuSansCondensed-Bold.ttf'
p1830
aS'/usr/share/fonts/truetype/tlwg/TlwgMono-Bold.ttf'
p1831
aS'/usr/share/fonts/truetype/liberation/LiberationMono-Italic.ttf'
p1832
aS'/usr/share/fonts/truetype/liberation/LiberationSerif-BoldItalic.ttf'
p1833
aS'/usr/share/fonts/truetype/ttf-liberation/LiberationSansNarrow-Italic.ttf'
p1834
aS'/usr/share/texmf/fonts/opentype/public/lm/lmromanslant8-regular.otf'
p1835
aS'/usr/share/fonts/truetype/liberation/LiberationSerif-Bold.ttf'
p1836
aS'/usr/share/fonts/truetype/ttf-dejavu/DejaVuSansMono-Bold.ttf'
p1837
aS'/usr/share/fonts/truetype/ttf-liberation/LiberationSerif-BoldItalic.ttf'
p1838
aS'/usr/share/texmf/fonts/opentype/public/lm/lmmonolt10-boldoblique.otf'
p1839
aS'/usr/share/fonts/truetype/dejavu/DejaVuSerifCondensed.ttf'
p1840
aS'/usr/share/fonts/truetype/ttf-indic-fonts-core/utkal.ttf'
p1841
aS'/usr/share/fonts/truetype/kacst/KacstQurn.ttf'
p1842
aS'/usr/share/fonts/truetype/ttf-indic-fonts-core/MuktiNarrow.ttf'
p1843
aS'/usr/share/texmf/fonts/opentype/public/lm/lmroman6-bold.otf'
p1844
aS'/usr/share/texmf/fonts/opentype/public/tex-gyre/texgyretermes-italic.otf'
p1845
aS'/usr/share/texmf/fonts/opentype/public/lm/lmmonoprop10-regular.otf'
p1846
aS'/usr/share/fonts/truetype/tlwg/Norasi-Bold.ttf'
p1847
aS'/usr/share/texmf/fonts/opentype/public/tex-gyre/texgyreheros-italic.otf'
p1848
aS'/usr/share/fonts/truetype/msttcorefonts/courbi.ttf'
p1849
aS'/usr/share/texmf/fonts/opentype/public/tex-gyre/texgyreheroscn-bolditalic.otf'
p1850
aS'/usr/share/fonts/truetype/tlwg/Kinnari-BoldOblique.ttf'
p1851
aS'/usr/share/fonts/truetype/ttf-indic-fonts-core/Malige-n.ttf'
p1852
aS'/usr/share/fonts/truetype/msttcorefonts/georgia.ttf'
p1853
aS'/usr/share/texmf/fonts/opentype/public/lm/lmroman10-regular.otf'
p1854
aS'/usr/share/fonts/truetype/kacst-one/KacstOne.ttf'
p1855
aS'/usr/share/texmf/fonts/opentype/public/lm/lmsans10-boldoblique.otf'
p1856
aS'/usr/share/texmf/fonts/opentype/public/tex-gyre/texgyreschola-bolditalic.otf'
p1857
aS'/usr/share/fonts/truetype/ttf-indic-fonts-core/lohit_bn.ttf'
p1858
aS'/usr/share/texmf/fonts/opentype/public/lm/lmromanslant9-regular.otf'
p1859
aS'/usr/share/texmf/fonts/opentype/public/lm/lmmonoslant10-regular.otf'
p1860
aS'/usr/share/texmf/fonts/opentype/public/lm/lmsansquot8-boldoblique.otf'
p1861
aS'/usr/share/fonts/truetype/ttf-punjabi-fonts/Saab.ttf'
p1862
aS'/usr/share/fonts/truetype/kacst/KacstBook.ttf'
p1863
aS'/usr/share/fonts/truetype/droid/DroidSerif-BoldItalic.ttf'
p1864
aS'/usr/share/fonts/truetype/msttcorefonts/georgiai.ttf'
p1865
aS'/usr/share/texmf/fonts/opentype/public/tex-gyre/texgyreheros-bold.otf'
p1866
aS'/usr/share/fonts/truetype/lyx/wasy10.ttf'
p1867
aS'/usr/share/fonts/truetype/ttf-indic-fonts-core/Pothana2000.ttf'
p1868
aS'/usr/share/fonts/truetype/dejavu/DejaVuSansCondensed.ttf'
p1869
aS'/usr/share/fonts/truetype/unfonts-core/UnGungseo.ttf'
p1870
aS'/usr/share/fonts/truetype/dejavu/DejaVuSansCondensed-BoldOblique.ttf'
p1871
aS'/usr/share/texmf/fonts/opentype/public/lm/lmroman8-regular.otf'
p1872
aS'/usr/share/fonts/truetype/kacst/KacstDecorative.ttf'
p1873
aS'/usr/share/fonts/truetype/ubuntu-font-family/Ubuntu-B.ttf'
p1874
aS'/usr/share/fonts/truetype/freefont/FreeSansBoldOblique.ttf'
p1875
aS'/usr/share/texmf/fonts/opentype/public/lm/lmsans12-oblique.otf'
p1876
aS'/usr/share/fonts/truetype/liberation/LiberationMono-Bold.ttf'
p1877
aS'/usr/share/texmf/fonts/opentype/public/lm/lmsansdemicond10-regular.otf'
p1878
aS'/usr/share/fonts/truetype/padauk/Padauk-bookbold.ttf'
p1879
aS'/usr/share/fonts/truetype/freefont/FreeSans.ttf'
p1880
aS'/usr/share/fonts/truetype/nanum/NanumMyeongjoBold.ttf'
p1881
aS'/usr/share/fonts/truetype/dejavu/DejaVuSerif-Bold.ttf'
p1882
aS'/usr/share/fonts/truetype/tlwg/Kinnari-Oblique.ttf'
p1883
aS'/usr/share/texmf/fonts/opentype/public/tex-gyre/texgyreadventor-bolditalic.otf'
p1884
aS'/usr/share/fonts/truetype/tlwg/Umpush-Light.ttf'
p1885
aS'/usr/share/texmf/fonts/opentype/public/tex-gyre/texgyreschola-italic.otf'
p1886
aS'/usr/share/fonts/truetype/unfonts-core/UnBatangBold.ttf'
p1887
aS'/usr/share/fonts/truetype/tlwg/Purisa-BoldOblique.ttf'
p1888
aS'/usr/share/texmf/fonts/opentype/public/tex-gyre/texgyreheros-regular.otf'
p1889
aS'/usr/share/fonts/truetype/msttcorefonts/georgiaz.ttf'
p1890
aS'/usr/share/fonts/truetype/dejavu/DejaVuSans.ttf'
p1891
aS'/usr/share/fonts/truetype/lao/Phetsarath_OT.ttf'
p1892
aS'/usr/share/fonts/truetype/freefont/FreeMonoOblique.ttf'
p1893
aS'/usr/share/fonts/truetype/msttcorefonts/webdings.ttf'
p1894
aS'/usr/share/fonts/truetype/liberation/LiberationSansNarrow-Regular.ttf'
p1895
aS'/usr/share/fonts/truetype/msttcorefonts/trebucit.ttf'
p1896
aS'/usr/share/texmf/fonts/opentype/public/lm/lmsansquot8-oblique.otf'
p1897
aS'/usr/share/fonts/truetype/msttcorefonts/Comic_Sans_MS.ttf'
p1898
aS'/usr/share/fonts/truetype/tlwg/Sawasdee-Oblique.ttf'
p1899
aS'/usr/share/texmf/fonts/opentype/public/lm/lmroman10-bolditalic.otf'
p1900
aS'/usr/share/fonts/truetype/ttf-khmeros-core/KhmerOS.ttf'
p1901
aS'/usr/share/fonts/truetype/padauk/Padauk.ttf'
p1902
aS'/usr/share/fonts/truetype/droid/DroidSansJapanese.ttf'
p1903
aS'/usr/share/texmf/fonts/opentype/public/lm/lmmonoproplt10-regular.otf'
p1904
aS'/usr/share/fonts/truetype/tlwg/TlwgTypewriter-Oblique.ttf'
p1905
aS'/usr/share/fonts/truetype/Paintball.ttf'
p1906
aS'/usr/share/fonts/truetype/tlwg/Waree.ttf'
p1907
aS'/usr/share/fonts/truetype/freefont/FreeMono.ttf'
p1908
aS'/usr/share/texmf/fonts/opentype/public/lm/lmmono9-regular.otf'
p1909
aS'/usr/share/texmf/fonts/opentype/public/lm/lmroman10-bold.otf'
p1910
aS'/usr/share/fonts/truetype/unfonts-core/UnPilgiBold.ttf'
p1911
aS'/usr/share/fonts/truetype/droid/DroidSansEthiopic-Regular.ttf'
p1912
aS'/usr/share/fonts/truetype/ttf-liberation/LiberationSans-Regular.ttf'
p1913
aS'/usr/share/fonts/truetype/ttf-liberation/LiberationSansNarrow-Regular.ttf'
p1914
aS'/usr/share/texmf/fonts/opentype/public/lm/lmroman7-regular.otf'
p1915
aS'/usr/share/fonts/truetype/tlwg/Umpush.ttf'
p1916
aS'/usr/share/texmf/fonts/opentype/public/tex-gyre/texgyreheros-bolditalic.otf'
p1917
aS'/usr/share/fonts/truetype/msttcorefonts/Times_New_Roman.ttf'
p1918
aS'/usr/share/fonts/truetype/plasdrpe.ttf'
p1919
aS'/usr/share/texmf/fonts/opentype/public/tex-gyre/texgyrecursor-bolditalic.otf'
p1920
aS'/usr/share/texmf/fonts/opentype/public/lm/lmsans10-bold.otf'
p1921
aS'/usr/share/fonts/truetype/ttf-dejavu/DejaVuSansMono.ttf'
p1922
aS'/usr/share/fonts/truetype/ttf-punjabi-fonts/lohit_pa.ttf'
p1923
aS'/usr/share/fonts/truetype/msttcorefonts/Georgia_Bold.ttf'
p1924
aS'/usr/share/fonts/truetype/freefont/FreeSerifBold.ttf'
p1925
aS'/usr/share/fonts/truetype/lyx/msam10.ttf'
p1926
aS'/usr/share/texmf/fonts/opentype/public/tex-gyre/texgyretermes-regular.otf'
p1927
aS'/usr/share/fonts/truetype/sinhala/lklug.ttf'
p1928
aS'/usr/share/fonts/truetype/ttf-indic-fonts-core/lohit_hi.ttf'
p1929
aS'/usr/share/fonts/truetype/msttcorefonts/Courier_New_Bold.ttf'
p1930
aS'/usr/share/fonts/truetype/ubuntu-font-family/Ubuntu-R.ttf'
p1931
aS'/usr/share/fonts/truetype/dejavu/DejaVuSans-BoldOblique.ttf'
p1932
aS'/usr/share/fonts/truetype/tlwg/TlwgMono-Oblique.ttf'
p1933
aS'/usr/share/texmf/fonts/opentype/public/tex-gyre/texgyrepagella-bolditalic.otf'
p1934
aS'/usr/share/fonts/truetype/msttcorefonts/Georgia.ttf'
p1935
aS'/usr/share/fonts/truetype/lyx/msbm10.ttf'
p1936
aS'/usr/share/fonts/truetype/dejavu/DejaVuSerif-Italic.ttf'
p1937
aS'/usr/share/fonts/truetype/dejavu/DejaVuSerifCondensed-Italic.ttf'
p1938
aS'/usr/share/fonts/truetype/msttcorefonts/Verdana.ttf'
p1939
aS'/usr/share/fonts/truetype/tlwg/TlwgTypist-BoldOblique.ttf'
p1940
aS'/usr/share/fonts/truetype/tlwg/TlwgMono-BoldOblique.ttf'
p1941
aS'/usr/share/fonts/truetype/ttf-dejavu/DejaVuSansCondensed-Oblique.ttf'
p1942
aS'/usr/share/fonts/truetype/msttcorefonts/cour.ttf'
p1943
aS'/usr/share/texmf/fonts/opentype/public/tex-gyre-math/texgyrepagella-math.otf'
p1944
aS'/usr/share/fonts/truetype/takao-gothic/TakaoPGothic.ttf'
p1945
aS'/usr/share/fonts/truetype/droid/DroidSans.ttf'
p1946
aS'/usr/share/texmf/fonts/opentype/public/tex-gyre/texgyreheroscn-italic.otf'
p1947
aS'/usr/share/fonts/truetype/ttf-indic-fonts-core/Kedage-b.ttf'
p1948
aS'/usr/share/fonts/truetype/ttf-dejavu/DejaVuSerif-Bold.ttf'
p1949
aS'/usr/share/fonts/truetype/msttcorefonts/Courier_New.ttf'
p1950
aS'/usr/share/texmf/fonts/opentype/public/lm/lmmono12-regular.otf'
p1951
aS'/usr/share/fonts/truetype/tlwg/Norasi-BoldItalic.ttf'
p1952
aS'/usr/share/fonts/truetype/tlwg/Umpush-Bold.ttf'
p1953
aS'/usr/share/fonts/truetype/liberation/LiberationSans-BoldItalic.ttf'
p1954
aS'/usr/share/fonts/truetype/ttf-liberation/LiberationSans-BoldItalic.ttf'
p1955
aS'/usr/share/texmf/fonts/opentype/public/tex-gyre/texgyreadventor-bold.otf'
p1956
aS'/usr/share/fonts/truetype/ttf-indic-fonts-core/Vemana.ttf'
p1957
aS'/usr/share/fonts/truetype/tlwg/Norasi-BoldOblique.ttf'
p1958
aS'/usr/share/texmf/fonts/opentype/public/lm/lmmonoltcond10-regular.otf'
p1959
aS'/usr/share/texmf/fonts/opentype/public/lm/lmromandemi10-regular.otf'
p1960
aS'/usr/share/fonts/truetype/ttf-dejavu/DejaVuSansMono-BoldOblique.ttf'
p1961
aS'/usr/share/fonts/truetype/ttf-dejavu/DejaVuSans-Bold.ttf'
p1962
aS'/usr/share/fonts/truetype/ubuntu-font-family/Ubuntu-L.ttf'
p1963
aS'/usr/share/texmf/fonts/opentype/public/lm/lmroman9-regular.otf'
p1964
aS'/usr/share/texmf/fonts/opentype/public/lm/lmsansdemicond10-oblique.otf'
p1965
aS'/usr/share/fonts/truetype/dejavu/DejaVuSans-ExtraLight.ttf'
p1966
aS'/usr/share/fonts/truetype/kacst/KacstFarsi.ttf'
p1967
aS'/usr/share/fonts/truetype/msttcorefonts/Andale_Mono.ttf'
p1968
aS'/usr/share/texmf/fonts/opentype/public/lm/lmromanslant17-regular.otf'
p1969
aS'/usr/share/texmf/fonts/opentype/public/tex-gyre/texgyrecursor-bold.otf'
p1970
aS'/usr/share/texmf/fonts/opentype/public/tex-gyre/texgyreadventor-regular.otf'
p1971
aS'/usr/share/fonts/truetype/msttcorefonts/Courier_New_Italic.ttf'
p1972
aS'/usr/share/texmf/fonts/opentype/public/lm/lmmonoltcond10-oblique.otf'
p1973
aS'/usr/share/fonts/truetype/tlwg/Loma-BoldOblique.ttf'
p1974
aS'/usr/share/fonts/truetype/tlwg/TlwgTypewriter.ttf'
p1975
aS'/usr/share/texmf/fonts/opentype/public/lm/lmroman7-bold.otf'
p1976
aS'/usr/share/texmf/fonts/opentype/public/tex-gyre/texgyretermes-bold.otf'
p1977
aS'/usr/share/fonts/truetype/ttf-indic-fonts-core/gargi.ttf'
p1978
aS'/usr/share/texmf/fonts/opentype/public/lm/lmroman9-bold.otf'
p1979
aS'/usr/share/fonts/truetype/ttf-dejavu/DejaVuSerifCondensed-Italic.ttf'
p1980
aS'/usr/share/fonts/truetype/msttcorefonts/Arial_Black.ttf'
p1981
aS'/usr/share/fonts/truetype/msttcorefonts/Webdings.ttf'
p1982
aS'/usr/share/texmf/fonts/opentype/public/lm/lmsans8-oblique.otf'
p1983
aS'/usr/share/fonts/truetype/unfonts-core/UnDotumBold.ttf'
p1984
aS'/usr/share/fonts/truetype/freefont/FreeMonoBoldOblique.ttf'
p1985
aS'/usr/share/texmf/fonts/opentype/public/tex-gyre/texgyreschola-bold.otf'
p1986
aS'/usr/share/fonts/truetype/msttcorefonts/ariali.ttf'
p1987
aS'/usr/share/fonts/truetype/msttcorefonts/trebucbi.ttf'
p1988
aS'/usr/share/fonts/truetype/kacst/KacstArt.ttf'
p1989
aS'/usr/share/fonts/truetype/liberation/LiberationSansNarrow-BoldItalic.ttf'
p1990
aS'/usr/share/fonts/truetype/msttcorefonts/timesi.ttf'
p1991
aS'/usr/share/fonts/truetype/msttcorefonts/Times_New_Roman_Italic.ttf'
p1992
aS'/usr/share/fonts/truetype/liberation/LiberationSans-Regular.ttf'
p1993
aS'/usr/share/fonts/truetype/ubuntu-font-family/Ubuntu-C.ttf'
p1994
aS'/usr/share/texmf/fonts/opentype/public/lm/lmromanslant12-regular.otf'
p1995
aS'/usr/share/texmf/fonts/opentype/public/lm/lmsans17-regular.otf'
p1996
aS'/usr/share/fonts/truetype/msttcorefonts/Courier_New_Bold_Italic.ttf'
p1997
aS'/usr/share/fonts/truetype/tlwg/Kinnari-Bold.ttf'
p1998
aS'/usr/share/fonts/truetype/tlwg/TlwgTypewriter-BoldOblique.ttf'
p1999
aS'/usr/share/fonts/truetype/liberation/LiberationSansNarrow-Bold.ttf'
p2000
aS'/usr/share/texmf/fonts/opentype/public/tex-gyre/texgyrechorus-mediumitalic.otf'
p2001
aS'/usr/share/fonts/truetype/freefont/FreeSerif.ttf'
p2002
aS'/usr/share/texmf/fonts/opentype/public/lm/lmromanslant10-regular.otf'
p2003
aS'/usr/share/fonts/truetype/tlwg/Sawasdee-BoldOblique.ttf'
p2004
aS'/usr/share/fonts/truetype/tlwg/Sawasdee-Bold.ttf'
p2005
aS'/usr/share/fonts/truetype/droid/DroidSansThai.ttf'
p2006
aS'/usr/share/fonts/truetype/tlwg/Garuda-Oblique.ttf'
p2007
aS'/usr/share/fonts/truetype/lyx/cmex10.ttf'
p2008
aS'/usr/share/fonts/truetype/ttf-indic-fonts-core/lohit_gu.ttf'
p2009
aS'/usr/share/texmf/fonts/opentype/public/lm/lmsansquot8-bold.otf'
p2010
aS'/usr/share/fonts/truetype/nanum/NanumMyeongjo.ttf'
p2011
aS'/usr/share/fonts/truetype/tlwg/Loma-Bold.ttf'
p2012
aS'/usr/share/fonts/truetype/kacst/KacstPen.ttf'
p2013
aS'/usr/share/fonts/truetype/msttcorefonts/trebucbd.ttf'
p2014
aS'/usr/share/fonts/truetype/freefont/FreeSerifItalic.ttf'
p2015
aS'/usr/share/texmf/fonts/opentype/public/lm/lmromanslant10-bold.otf'
p2016
aS'/usr/share/texmf/fonts/opentype/public/lm/lmromancaps10-oblique.otf'
p2017
aS'/usr/share/texmf/fonts/opentype/public/tex-gyre/texgyreadventor-italic.otf'
p2018
aS'/usr/share/fonts/truetype/liberation/LiberationSansNarrow-Italic.ttf'
p2019
aS'/usr/share/fonts/truetype/gooey.ttf'
p2020
aS'/usr/share/fonts/truetype/lyx/cmr10.ttf'
p2021
aS'/usr/share/fonts/truetype/ttf-indic-fonts-core/Malige-b.ttf'
p2022
aS'/usr/share/texmf/fonts/opentype/public/tex-gyre/texgyrecursor-italic.otf'
p2023
aS'/usr/share/texmf/fonts/opentype/public/lm/lmroman6-regular.otf'
p2024
aS'/usr/share/fonts/truetype/dejavu/DejaVuSerifCondensed-BoldItalic.ttf'
p2025
aS'/usr/share/fonts/truetype/msttcorefonts/verdanai.ttf'
p2026
aS'/usr/share/fonts/truetype/ttf-dejavu/DejaVuSansCondensed.ttf'
p2027
aS'/usr/share/fonts/truetype/ttf-liberation/LiberationMono-Bold.ttf'
p2028
aS'/usr/share/texmf/fonts/opentype/public/lm/lmsans9-regular.otf'
p2029
aS'/usr/share/texmf/fonts/opentype/public/lm/lmmonolt10-oblique.otf'
p2030
aS'/usr/share/fonts/truetype/droid/DroidSerif-Bold.ttf'
p2031
aS'/usr/share/fonts/truetype/ttf-indic-fonts-core/Meera_04.ttf'
p2032
aS'/usr/share/fonts/truetype/floyd.TTF'
p2033
aS'/usr/share/fonts/truetype/tlwg/Umpush-LightOblique.ttf'
p2034
aS'/usr/share/fonts/truetype/tlwg/TlwgTypo.ttf'
p2035
aS'/usr/share/fonts/truetype/ttf-liberation/LiberationMono-Italic.ttf'
p2036
aS'/usr/share/fonts/truetype/msttcorefonts/georgiab.ttf'
p2037
aS'/usr/share/fonts/truetype/ttf-dejavu/DejaVuSerif.ttf'
p2038
aS'/usr/share/fonts/truetype/freefont/FreeSansOblique.ttf'
p2039
aS'/usr/share/texmf/fonts/opentype/public/lm/lmromandunh10-oblique.otf'
p2040
aS'/usr/share/fonts/truetype/liberation/LiberationSans-Bold.ttf'
p2041
aS'/usr/share/fonts/truetype/lyx/rsfs10.ttf'
p2042
aS'/usr/share/fonts/truetype/liberation/LiberationMono-Regular.ttf'
p2043
aS'/usr/share/texmf/fonts/opentype/public/tex-gyre/texgyrebonum-italic.otf'
p2044
aS'/usr/share/texmf/fonts/opentype/public/lm/lmsans10-regular.otf'
p2045
aS'/usr/share/fonts/truetype/msttcorefonts/Times_New_Roman_Bold_Italic.ttf'
p2046
aS'/usr/share/fonts/truetype/tlwg/Garuda.ttf'
p2047
aS'/usr/share/fonts/truetype/kacst/mry_KacstQurn.ttf'
p2048
aS'/usr/share/texmf/fonts/opentype/public/lm/lmsans10-oblique.otf'
p2049
aS'/usr/share/fonts/truetype/tibetan-machine/TibetanMachineUni.ttf'
p2050
aS'/usr/share/texmf/fonts/opentype/public/lm/lmsansquot8-regular.otf'
p2051
aS'/usr/share/fonts/truetype/kacst-one/KacstOne-Bold.ttf'
p2052
aS'/usr/share/fonts/truetype/unfonts-core/UnGraphic.ttf'
p2053
aS'/usr/share/texmf/fonts/opentype/public/lm/lmsans8-regular.otf'
p2054
aS'/usr/share/fonts/truetype/kacst/KacstDigital.ttf'
p2055
aS'/usr/share/fonts/truetype/lyx/eufm10.ttf'
p2056
aS'/usr/share/fonts/truetype/ttf-dejavu/DejaVuSerif-BoldItalic.ttf'
p2057
aS'/usr/share/fonts/truetype/lyx/esint10.ttf'
p2058
aS'/usr/share/texmf/fonts/opentype/public/lm/lmroman17-regular.otf'
p2059
aS'/usr/share/fonts/truetype/ttf-liberation/LiberationSansNarrow-BoldItalic.ttf'
p2060
aS'/usr/share/fonts/truetype/ttf-liberation/LiberationSerif-Italic.ttf'
p2061
aS'/usr/share/fonts/truetype/msttcorefonts/comicbd.ttf'
p2062
aS'/usr/share/texmf/fonts/opentype/public/tex-gyre/texgyreschola-regular.otf'
p2063
aS'/usr/share/fonts/truetype/msttcorefonts/Verdana_Italic.ttf'
p2064
aS'/usr/share/texmf/fonts/opentype/public/lm/lmromandemi10-oblique.otf'
p2065
aS'/usr/share/fonts/truetype/ttf-dejavu/DejaVuSans.ttf'
p2066
aS'/usr/share/fonts/truetype/msttcorefonts/verdana.ttf'
p2067
aS'/usr/share/fonts/truetype/droid/DroidSansGeorgian.ttf'
p2068
aS'/usr/share/fonts/truetype/ttf-dejavu/DejaVuSans-ExtraLight.ttf'
p2069
aS'/usr/share/fonts/truetype/msttcorefonts/Comic_Sans_MS_Bold.ttf'
p2070
aS'/usr/share/texmf/fonts/opentype/public/lm/lmmonolt10-regular.otf'
p2071
aS'/usr/share/texmf/fonts/opentype/public/lm/lmmonoproplt10-oblique.otf'
p2072
aS'/usr/share/texmf/fonts/opentype/public/lm/lmroman5-bold.otf'
p2073
aS'/usr/share/fonts/truetype/padauk/Padauk-bold.ttf'
p2074
aS'/usr/share/fonts/truetype/msttcorefonts/couri.ttf'
p2075
aS'/usr/share/fonts/truetype/dejavu/DejaVuSansMono.ttf'
p2076
aS'/usr/share/fonts/truetype/ttf-indic-fonts-core/Rekha.ttf'
p2077
aS'/usr/share/fonts/truetype/tlwg/Loma-Oblique.ttf'
p2078
aS'/usr/share/fonts/truetype/tlwg/Garuda-BoldOblique.ttf'
p2079
aS'/usr/share/texmf/fonts/opentype/public/tex-gyre/texgyrepagella-bold.otf'
p2080
aS'/usr/share/fonts/truetype/msttcorefonts/ariblk.ttf'
p2081
aS'/usr/share/fonts/truetype/msttcorefonts/Verdana_Bold_Italic.ttf'
p2082
aS'/usr/share/fonts/truetype/openoffice/opens___.ttf'
p2083
aS'/usr/share/texmf/fonts/opentype/public/lm/lmmonolt10-bold.otf'
p2084
aS'/usr/share/fonts/truetype/msttcorefonts/Verdana_Bold.ttf'
p2085
aS'/usr/share/fonts/truetype/tlwg/Umpush-BoldOblique.ttf'
p2086
aS'/usr/share/fonts/truetype/unfonts-core/UnPilgi.ttf'
p2087
aS'/usr/share/fonts/truetype/droid/DroidSerif-Italic.ttf'
p2088
aS'/usr/share/fonts/truetype/tlwg/TlwgTypo-Bold.ttf'
p2089
aS'/usr/share/fonts/truetype/msttcorefonts/Arial_Italic.ttf'
p2090
aS'/usr/share/fonts/truetype/liberation/LiberationSerif-Italic.ttf'
p2091
aS'/usr/share/fonts/truetype/tlwg/TlwgTypewriter-Bold.ttf'
p2092
aS'/usr/share/fonts/truetype/tlwg/Waree-BoldOblique.ttf'
p2093
aS'/usr/share/fonts/truetype/tlwg/Waree-Bold.ttf'
p2094
aS'/usr/share/fonts/truetype/freefont/FreeSerifBoldItalic.ttf'
p2095
aS'/usr/share/fonts/truetype/msttcorefonts/comic.ttf'
p2096
aS'/usr/share/texmf/fonts/opentype/public/lm/lmmonocaps10-oblique.otf'
p2097
aS'/usr/share/fonts/truetype/ttf-liberation/LiberationSansNarrow-Bold.ttf'
p2098
aS'/usr/share/texmf/fonts/opentype/public/tex-gyre-math/texgyretermes-math.otf'
p2099
aS'/usr/share/fonts/truetype/tlwg/TlwgTypo-Oblique.ttf'
p2100
aS'/usr/share/fonts/truetype/droid/DroidSans-Bold.ttf'
p2101
aS'/usr/share/texmf/fonts/opentype/public/lm/lmmonoproplt10-bold.otf'
p2102
aS'/usr/share/fonts/truetype/msttcorefonts/arialbd.ttf'
p2103
aS'/usr/share/fonts/truetype/ubuntu-font-family/Ubuntu-MI.ttf'
p2104
aS'/usr/share/fonts/truetype/ttf-indic-fonts-core/Kedage-n.ttf'
p2105
aS'/usr/share/fonts/truetype/msttcorefonts/arial.ttf'
p2106
aS'/usr/share/texmf/fonts/opentype/public/lm/lmromanunsl10-regular.otf'
p2107
aS'/usr/share/texmf/fonts/opentype/public/lm/lmsans9-oblique.otf'
p2108
aS'/usr/share/fonts/truetype/ttf-liberation/LiberationSans-Bold.ttf'
p2109
aS'/usr/share/fonts/truetype/ttf-dejavu/DejaVuSansMono-Oblique.ttf'
p2110
aS'/usr/share/fonts/truetype/ttf-liberation/LiberationMono-Regular.ttf'
p2111
aS'/usr/share/texmf/fonts/opentype/public/tex-gyre/texgyrebonum-regular.otf'
p2112
aS'/usr/share/fonts/truetype/padauk/Padauk-book.ttf'
p2113
aS'/usr/share/fonts/truetype/msttcorefonts/Arial_Bold_Italic.ttf'
p2114
aS'/usr/share/fonts/truetype/ttf-liberation/LiberationMono-BoldItalic.ttf'
p2115
aS'/usr/share/fonts/truetype/kacst/KacstOffice.ttf'
p2116
aS'/usr/share/fonts/truetype/abyssinica/AbyssinicaSIL-R.ttf'
p2117
aS'/usr/share/fonts/truetype/tlwg/Loma.ttf'
p2118
aS'/usr/share/fonts/truetype/msttcorefonts/Trebuchet_MS_Bold_Italic.ttf'
p2119
aS'/usr/share/fonts/truetype/droid/DroidNaskh-Bold.ttf'
p2120
aS'/usr/share/texmf/fonts/opentype/public/lm/lmsans17-oblique.otf'
p2121
aS'/usr/share/fonts/truetype/tlwg/TlwgTypo-BoldOblique.ttf'
p2122
aS'/usr/share/fonts/truetype/kacst/KacstTitleL.ttf'
p2123
aS'/usr/share/fonts/truetype/msttcorefonts/Times_New_Roman_Bold.ttf'
p2124
aS'/usr/share/fonts/truetype/droid/DroidSansHebrew-Regular.ttf'
p2125
asS'_FontManager__default_weight'
p2126
g13
sS'_version'
p2127
I101
sS'ttf_lookup_cache'
p2128
(dp2129
sS'default_size'
p2130
NsS'defaultFont'
p2131
(dp2132
g1668
S'/usr/share/matplotlib/mpl-data/fonts/afm/pagko8a.afm'
p2133
sg1670
g1674
ssS'afmfiles'
p2134
(lp2135
g2133
aS'/usr/share/matplotlib/mpl-data/fonts/afm/pzcmi8a.afm'
p2136
aS'/usr/share/matplotlib/mpl-data/fonts/afm/pplb8a.afm'
p2137
aS'/usr/share/matplotlib/mpl-data/fonts/afm/putbi8a.afm'
p2138
aS'/usr/share/matplotlib/mpl-data/fonts/pdfcorefonts/Helvetica-BoldOblique.afm'
p2139
aS'/usr/share/matplotlib/mpl-data/fonts/afm/phvro8an.afm'
p2140
aS'/usr/share/matplotlib/mpl-data/fonts/afm/pbkd8a.afm'
p2141
aS'/usr/share/matplotlib/mpl-data/fonts/afm/pcrbo8a.afm'
p2142
aS'/usr/share/matplotlib/mpl-data/fonts/pdfcorefonts/Helvetica-Bold.afm'
p2143
aS'/usr/share/matplotlib/mpl-data/fonts/pdfcorefonts/Times-BoldItalic.afm'
p2144
aS'/usr/share/matplotlib/mpl-data/fonts/afm/putr8a.afm'
p2145
aS'/usr/share/matplotlib/mpl-data/fonts/afm/pagdo8a.afm'
p2146
aS'/usr/share/matplotlib/mpl-data/fonts/afm/pcrr8a.afm'
p2147
aS'/usr/share/matplotlib/mpl-data/fonts/afm/pncb8a.afm'
p2148
aS'/usr/share/matplotlib/mpl-data/fonts/pdfcorefonts/Courier-Bold.afm'
p2149
aS'/usr/share/matplotlib/mpl-data/fonts/afm/pcrro8a.afm'
p2150
aS'/usr/share/matplotlib/mpl-data/fonts/afm/phvr8a.afm'
p2151
aS'/usr/share/matplotlib/mpl-data/fonts/afm/cmtt10.afm'
p2152
aS'/usr/share/matplotlib/mpl-data/fonts/pdfcorefonts/Symbol.afm'
p2153
aS'/usr/share/matplotlib/mpl-data/fonts/afm/phvr8an.afm'
p2154
aS'/usr/share/matplotlib/mpl-data/fonts/afm/phvro8a.afm'
p2155
aS'/usr/share/matplotlib/mpl-data/fonts/afm/ptmr8a.afm'
p2156
aS'/usr/share/matplotlib/mpl-data/fonts/afm/pplbi8a.afm'
p2157
aS'/usr/share/matplotlib/mpl-data/fonts/afm/phvb8an.afm'
p2158
aS'/usr/share/matplotlib/mpl-data/fonts/afm/cmsy10.afm'
p2159
aS'/usr/share/matplotlib/mpl-data/fonts/afm/pagk8a.afm'
p2160
aS'/usr/share/matplotlib/mpl-data/fonts/pdfcorefonts/Courier-BoldOblique.afm'
p2161
aS'/usr/share/matplotlib/mpl-data/fonts/afm/putb8a.afm'
p2162
aS'/usr/share/matplotlib/mpl-data/fonts/afm/cmmi10.afm'
p2163
aS'/usr/share/matplotlib/mpl-data/fonts/afm/phvl8a.afm'
p2164
aS'/usr/share/matplotlib/mpl-data/fonts/afm/pbkdi8a.afm'
p2165
aS'/usr/share/matplotlib/mpl-data/fonts/afm/phvbo8a.afm'
p2166
aS'/usr/share/matplotlib/mpl-data/fonts/afm/cmr10.afm'
p2167
aS'/usr/share/matplotlib/mpl-data/fonts/pdfcorefonts/Times-Bold.afm'
p2168
aS'/usr/share/matplotlib/mpl-data/fonts/afm/psyr.afm'
p2169
aS'/usr/share/matplotlib/mpl-data/fonts/afm/phvlo8a.afm'
p2170
aS'/usr/share/matplotlib/mpl-data/fonts/afm/phvb8a.afm'
p2171
aS'/usr/share/matplotlib/mpl-data/fonts/afm/pzdr.afm'
p2172
aS'/usr/share/matplotlib/mpl-data/fonts/afm/ptmri8a.afm'
p2173
aS'/usr/share/matplotlib/mpl-data/fonts/afm/pplr8a.afm'
p2174
aS'/usr/share/matplotlib/mpl-data/fonts/afm/pbkl8a.afm'
p2175
aS'/usr/share/matplotlib/mpl-data/fonts/afm/pncbi8a.afm'
p2176
aS'/usr/share/matplotlib/mpl-data/fonts/pdfcorefonts/ZapfDingbats.afm'
p2177
aS'/usr/share/matplotlib/mpl-data/fonts/afm/ptmb8a.afm'
p2178
aS'/usr/share/matplotlib/mpl-data/fonts/pdfcorefonts/Helvetica.afm'
p2179
aS'/usr/share/matplotlib/mpl-data/fonts/afm/pplri8a.afm'
p2180
aS'/usr/share/matplotlib/mpl-data/fonts/afm/ptmbi8a.afm'
p2181
aS'/usr/share/matplotlib/mpl-data/fonts/afm/pbkli8a.afm'
p2182
aS'/usr/share/matplotlib/mpl-data/fonts/pdfcorefonts/Courier-Oblique.afm'
p2183
aS'/usr/share/matplotlib/mpl-data/fonts/pdfcorefonts/Courier.afm'
p2184
aS'/usr/share/matplotlib/mpl-data/fonts/afm/pcrb8a.afm'
p2185
aS'/usr/share/matplotlib/mpl-data/fonts/afm/pagd8a.afm'
p2186
aS'/usr/share/matplotlib/mpl-data/fonts/afm/pncr8a.afm'
p2187
aS'/usr/share/matplotlib/mpl-data/fonts/afm/phvbo8an.afm'
p2188
aS'/usr/share/matplotlib/mpl-data/fonts/pdfcorefonts/Times-Italic.afm'
p2189
aS'/usr/share/matplotlib/mpl-data/fonts/afm/cmex10.afm'
p2190
aS'/usr/share/matplotlib/mpl-data/fonts/pdfcorefonts/Times-Roman.afm'
p2191
aS'/usr/share/matplotlib/mpl-data/fonts/afm/putri8a.afm'
p2192
aS'/usr/share/matplotlib/mpl-data/fonts/pdfcorefonts/Helvetica-Oblique.afm'
p2193
aS'/usr/share/matplotlib/mpl-data/fonts/afm/pncri8a.afm'
p2194
aS'/usr/share/fonts/X11/Type1/lmtt10.afm'
p2195
aS'/usr/share/fonts/X11/Type1/qcsri.afm'
p2196
aS'/usr/share/fonts/X11/Type1/lmssqo8.afm'
p2197
aS'/usr/share/fonts/type1/gsfonts/n019064l.afm'
p2198
aS'/usr/share/fonts/type1/gsfonts/b018015l.afm'
p2199
aS'/usr/share/fonts/X11/Type1/lmbxo10.afm'
p2200
aS'/usr/share/fonts/type1/gsfonts/c059036l.afm'
p2201
aS'/usr/share/fonts/type1/texlive-fonts-recommended/uplbi8a.afm'
p2202
aS'/usr/share/fonts/type1/gsfonts/n022024l.afm'
p2203
aS'/usr/share/fonts/X11/Type1/lmtlc10.afm'
p2204
aS'/usr/share/fonts/type1/gsfonts/n019004l.afm'
p2205
aS'/usr/share/fonts/X11/Type1/lmtk10.afm'
p2206
aS'/usr/share/fonts/X11/Type1/qbkr.afm'
p2207
aS'/usr/share/fonts/X11/Type1/lmdunh10.afm'
p2208
aS'/usr/share/fonts/type1/gsfonts/n019003l.afm'
p2209
aS'/usr/share/fonts/type1/texlive-fonts-recommended/ucrro8a.afm'
p2210
aS'/usr/share/fonts/type1/texlive-fonts-recommended/ubkli8a.afm'
p2211
aS'/usr/share/fonts/type1/texlive-fonts-recommended/uhvbo8ac.afm'
p2212
aS'/usr/share/fonts/type1/texlive-fonts-recommended/uagk8a.afm'
p2213
aS'/usr/share/fonts/type1/texlive-fonts-recommended/uhvro8a.afm'
p2214
aS'/usr/share/fonts/type1/gsfonts/a010015l.afm'
p2215
aS'/usr/share/fonts/X11/Type1/qcrr.afm'
p2216
aS'/usr/share/fonts/type1/texlive-fonts-recommended/ubkdi8a.afm'
p2217
aS'/usr/share/fonts/type1/texlive-fonts-recommended/pcrro8a.afm'
p2218
aS'/usr/share/fonts/type1/texlive-fonts-recommended/uncb8a.afm'
p2219
aS'/usr/share/fonts/type1/gsfonts/c059013l.afm'
p2220
aS'/usr/share/fonts/type1/texlive-fonts-recommended/putri8a.afm'
p2221
aS'/usr/share/fonts/X11/Type1/qhvcb.afm'
p2222
aS'/usr/share/fonts/X11/Type1/qtmb.afm'
p2223
aS'/usr/share/fonts/X11/Type1/lmvtlo10.afm'
p2224
aS'/usr/share/fonts/X11/Type1/lmtcso10.afm'
p2225
aS'/usr/share/fonts/X11/Type1/lmtti10.afm'
p2226
aS'/usr/share/fonts/X11/Type1/c0419bt_.afm'
p2227
aS'/usr/share/fonts/type1/gsfonts/n021024l.afm'
p2228
aS'/usr/share/fonts/type1/gsfonts/n019024l.afm'
p2229
aS'/usr/share/fonts/X11/Type1/qhvbi.afm'
p2230
aS'/usr/share/fonts/X11/Type1/qcsb.afm'
p2231
aS'/usr/share/fonts/X11/Type1/lmbx10.afm'
p2232
aS'/usr/share/fonts/type1/gsfonts/d050000l.afm'
p2233
aS'/usr/share/fonts/X11/Type1/lmssdo10.afm'
p2234
aS'/usr/share/fonts/X11/Type1/lmssqbx8.afm'
p2235
aS'/usr/share/fonts/X11/Type1/qhvb.afm'
p2236
aS'/usr/share/fonts/X11/Type1/lmb10.afm'
p2237
aS'/usr/share/fonts/type1/texlive-fonts-recommended/ucrr8a.afm'
p2238
aS'/usr/share/fonts/X11/Type1/c0648bt_.afm'
p2239
aS'/usr/share/fonts/type1/gsfonts/z003034l.afm'
p2240
aS'/usr/share/fonts/X11/Type1/qhvr.afm'
p2241
aS'/usr/share/fonts/X11/Type1/lmbxi10.afm'
p2242
aS'/usr/share/fonts/type1/texlive-fonts-recommended/putb8a.afm'
p2243
aS'/usr/share/fonts/type1/texlive-fonts-recommended/putr8a.afm'
p2244
aS'/usr/share/fonts/type1/texlive-fonts-recommended/uzcmi8a.afm'
p2245
aS'/usr/share/fonts/X11/Type1/lmro10.afm'
p2246
aS'/usr/share/fonts/type1/gsfonts/p052004l.afm'
p2247
aS'/usr/share/fonts/X11/Type1/qplr.afm'
p2248
aS'/usr/share/fonts/type1/texlive-fonts-recommended/uhvbo8a.afm'
p2249
aS'/usr/share/fonts/X11/Type1/qcsr.afm'
p2250
aS'/usr/share/fonts/type1/texlive-fonts-recommended/uplri8a.afm'
p2251
aS'/usr/share/fonts/type1/texlive-fonts-recommended/utmri8a.afm'
p2252
aS'/usr/share/fonts/type1/gsfonts/a010013l.afm'
p2253
aS'/usr/share/fonts/X11/Type1/c0583bt_.afm'
p2254
aS'/usr/share/fonts/type1/texlive-fonts-recommended/ucrb8a.afm'
p2255
aS'/usr/share/fonts/X11/Type1/qagri.afm'
p2256
aS'/usr/share/fonts/X11/Type1/qbkbi.afm'
p2257
aS'/usr/share/fonts/type1/texlive-fonts-recommended/bchbi8a.afm'
p2258
aS'/usr/share/fonts/type1/texlive-fonts-recommended/uncbi8a.afm'
p2259
aS'/usr/share/fonts/X11/Type1/lmcsc10.afm'
p2260
aS'/usr/share/fonts/type1/texlive-fonts-recommended/ubkl8a.afm'
p2261
aS'/usr/share/fonts/X11/Type1/qcrbi.afm'
p2262
aS'/usr/share/fonts/X11/Type1/qcrb.afm'
p2263
aS'/usr/share/fonts/X11/Type1/lmssqbo8.afm'
p2264
aS'/usr/share/fonts/type1/gsfonts/p052003l.afm'
p2265
aS'/usr/share/fonts/type1/gsfonts/b018032l.afm'
p2266
aS'/usr/share/fonts/X11/Type1/lmvtk10.afm'
p2267
aS'/usr/share/fonts/type1/gsfonts/n021023l.afm'
p2268
aS'/usr/share/fonts/X11/Type1/qhvri.afm'
p2269
aS'/usr/share/fonts/X11/Type1/lmtlo10.afm'
p2270
aS'/usr/share/fonts/X11/Type1/lmvtl10.afm'
p2271
aS'/usr/share/fonts/type1/gsfonts/n021003l.afm'
p2272
aS'/usr/share/fonts/X11/Type1/lmsso10.afm'
p2273
aS'/usr/share/fonts/type1/gsfonts/s050000l.afm'
p2274
aS'/usr/share/fonts/type1/gsfonts/n021004l.afm'
p2275
aS'/usr/share/fonts/type1/gsfonts/p052024l.afm'
p2276
aS'/usr/share/fonts/X11/Type1/qtmri.afm'
p2277
aS'/usr/share/fonts/type1/texlive-fonts-recommended/uncr8a.afm'
p2278
aS'/usr/share/fonts/X11/Type1/qbkb.afm'
p2279
aS'/usr/share/fonts/type1/texlive-fonts-recommended/putbi8a.afm'
p2280
aS'/usr/share/fonts/type1/gsfonts/n019063l.afm'
p2281
aS'/usr/share/fonts/X11/Type1/qtmr.afm'
p2282
aS'/usr/share/fonts/X11/Type1/lmtcsc10.afm'
p2283
aS'/usr/share/fonts/X11/Type1/lmcsco10.afm'
p2284
aS'/usr/share/fonts/X11/Type1/qagb.afm'
p2285
aS'/usr/share/fonts/X11/Type1/c0633bt_.afm'
p2286
aS'/usr/share/fonts/X11/Type1/lmvtto10.afm'
p2287
aS'/usr/share/fonts/type1/texlive-fonts-recommended/pcrbo8a.afm'
p2288
aS'/usr/share/fonts/X11/Type1/lmss10.afm'
p2289
aS'/usr/share/fonts/X11/Type1/lmvtt10.afm'
p2290
aS'/usr/share/fonts/type1/gsfonts/b018035l.afm'
p2291
aS'/usr/share/fonts/X11/Type1/lmduno10.afm'
p2292
aS'/usr/share/fonts/X11/Type1/qtmbi.afm'
p2293
aS'/usr/share/fonts/X11/Type1/qcsbi.afm'
p2294
aS'/usr/share/fonts/type1/texlive-fonts-recommended/pcrb8a.afm'
p2295
aS'/usr/share/fonts/type1/gsfonts/n022004l.afm'
p2296
aS'/usr/share/fonts/type1/mathml/Symbol.afm'
p2297
aS'/usr/share/fonts/X11/Type1/qhvcbi.afm'
p2298
aS'/usr/share/fonts/type1/texlive-fonts-recommended/uagko8a.afm'
p2299
aS'/usr/share/fonts/type1/texlive-fonts-recommended/uhvr8ac.afm'
p2300
aS'/usr/share/fonts/type1/texlive-fonts-recommended/uagd8a.afm'
p2301
aS'/usr/share/fonts/X11/Type1/lmri10.afm'
p2302
aS'/usr/share/fonts/X11/Type1/Symbol.afm'
p2303
aS'/usr/share/fonts/X11/Type1/lmr10.afm'
p2304
aS'/usr/share/fonts/X11/Type1/c0649bt_.afm'
p2305
aS'/usr/share/fonts/type1/texlive-fonts-recommended/uncri8a.afm'
p2306
aS'/usr/share/fonts/X11/Type1/lmtl10.afm'
p2307
aS'/usr/share/fonts/type1/texlive-fonts-recommended/usyr.afm'
p2308
aS'/usr/share/fonts/type1/texlive-fonts-recommended/uhvr8a.afm'
p2309
aS'/usr/share/fonts/X11/Type1/qplri.afm'
p2310
aS'/usr/share/fonts/X11/Type1/qagbi.afm'
p2311
aS'/usr/share/fonts/X11/Type1/qhvcr.afm'
p2312
aS'/usr/share/fonts/X11/Type1/lmtlco10.afm'
p2313
aS'/usr/share/fonts/type1/gsfonts/c059016l.afm'
p2314
aS'/usr/share/fonts/X11/Type1/qplb.afm'
p2315
aS'/usr/share/fonts/type1/gsfonts/n019044l.afm'
p2316
aS'/usr/share/fonts/type1/gsfonts/n022003l.afm'
p2317
aS'/usr/share/fonts/type1/gsfonts/a010033l.afm'
p2318
aS'/usr/share/fonts/X11/Type1/lmvtko10.afm'
p2319
aS'/usr/share/fonts/type1/texlive-fonts-recommended/bchri8a.afm'
p2320
aS'/usr/share/fonts/type1/texlive-fonts-recommended/bchb8a.afm'
p2321
aS'/usr/share/fonts/type1/gsfonts/c059033l.afm'
p2322
aS'/usr/share/fonts/type1/texlive-fonts-recommended/uplb8a.afm'
p2323
aS'/usr/share/fonts/X11/Type1/qcrri.afm'
p2324
aS'/usr/share/fonts/X11/Type1/lmssbx10.afm'
p2325
aS'/usr/share/fonts/type1/texlive-fonts-recommended/ucrbo8a.afm'
p2326
aS'/usr/share/fonts/type1/texlive-fonts-recommended/uhvro8ac.afm'
p2327
aS'/usr/share/fonts/type1/texlive-fonts-recommended/ubkd8a.afm'
p2328
aS'/usr/share/fonts/type1/texlive-fonts-recommended/utmbi8a.afm'
p2329
aS'/usr/share/fonts/type1/texlive-fonts-recommended/uplr8a.afm'
p2330
aS'/usr/share/fonts/type1/texlive-fonts-recommended/uhvb8ac.afm'
p2331
aS'/usr/share/fonts/X11/Type1/c0582bt_.afm'
p2332
aS'/usr/share/fonts/type1/texlive-fonts-recommended/utmb8a.afm'
p2333
aS'/usr/share/fonts/type1/texlive-fonts-recommended/uhvb8a.afm'
p2334
aS'/usr/share/fonts/X11/Type1/lmssq8.afm'
p2335
aS'/usr/share/fonts/X11/Type1/lmssbo10.afm'
p2336
aS'/usr/share/fonts/type1/texlive-fonts-recommended/pcrr8a.afm'
p2337
aS'/usr/share/fonts/X11/Type1/qagr.afm'
p2338
aS'/usr/share/fonts/type1/gsfonts/n019043l.afm'
p2339
aS'/usr/share/fonts/type1/texlive-fonts-recommended/utmr8a.afm'
p2340
aS'/usr/share/fonts/type1/texlive-fonts-recommended/bchr8a.afm'
p2341
aS'/usr/share/fonts/type1/gsfonts/n019023l.afm'
p2342
aS'/usr/share/fonts/type1/gsfonts/b018012l.afm'
p2343
aS'/usr/share/fonts/X11/Type1/lmtko10.afm'
p2344
aS'/usr/share/fonts/X11/Type1/qzcmi.afm'
p2345
aS'/usr/share/fonts/X11/Type1/c0611bt_.afm'
p2346
aS'/usr/share/fonts/X11/Type1/lmbo10.afm'
p2347
aS'/usr/share/fonts/type1/gsfonts/p052023l.afm'
p2348
aS'/usr/share/fonts/X11/Type1/qplbi.afm'
p2349
aS'/usr/share/fonts/type1/texlive-fonts-recommended/uagdo8a.afm'
p2350
aS'/usr/share/fonts/X11/Type1/lmssdc10.afm'
p2351
aS'/usr/share/fonts/X11/Type1/lmtto10.afm'
p2352
aS'/usr/share/fonts/type1/gsfonts/n022023l.afm'
p2353
aS'/usr/share/fonts/X11/Type1/qhvcri.afm'
p2354
aS'/usr/share/fonts/type1/gsfonts/a010035l.afm'
p2355
aS'/usr/share/fonts/X11/Type1/qbkri.afm'
p2356
aS'/usr/share/fonts/type1/texlive-fonts-recommended/uzdr.afm'
p2357
aS'/usr/share/fonts/X11/Type1/c0632bt_.afm'
p2358
aS'/usr/share/fonts/X11/Type1/lmu10.afm'
p2359
asS'afmlist'
p2360
(lp2361
g7
(g8
g9
NtRp2362
(dp2363
g12
g29
sg14
S'ITC Avant Garde Gothic'
p2364
sg16
I400
sg17
g13
sg18
g13
sg19
g2133
sg21
g22
sbag7
(g8
g9
NtRp2365
(dp2366
g12
g29
sg14
S'ITC Zapf Chancery'
p2367
sg16
I500
sg17
g13
sg18
g13
sg19
g2136
sg21
g22
sbag7
(g8
g9
NtRp2368
(dp2369
g12
g13
sg14
S'Palatino'
p2370
sg16
I700
sg17
g13
sg18
g13
sg19
g2137
sg21
g22
sbag7
(g8
g9
NtRp2371
(dp2372
g12
g29
sg14
S'Utopia'
p2373
sg16
I700
sg17
g13
sg18
g13
sg19
g2138
sg21
g22
sbag7
(g8
g9
NtRp2374
(dp2375
g12
g29
sg14
S'Helvetica'
p2376
sg16
I700
sg17
g13
sg18
g13
sg19
g2139
sg21
g22
sbag7
(g8
g9
NtRp2377
(dp2378
g12
g29
sg14
S'Helvetica'
p2379
sg16
I500
sg17
g184
sg18
g13
sg19
g2140
sg21
g22
sbag7
(g8
g9
NtRp2380
(dp2381
g12
g13
sg14
S'ITC Bookman'
p2382
sg16
I600
sg17
g13
sg18
g13
sg19
g2141
sg21
g22
sbag7
(g8
g9
NtRp2383
(dp2384
g12
g29
sg14
S'Courier'
p2385
sg16
I700
sg17
g13
sg18
g13
sg19
g2142
sg21
g22
sbag7
(g8
g9
NtRp2386
(dp2387
g12
g13
sg14
S'Helvetica'
p2388
sg16
I700
sg17
g13
sg18
g13
sg19
g2143
sg21
g22
sbag7
(g8
g9
NtRp2389
(dp2390
g12
g29
sg14
S'Times'
p2391
sg16
I700
sg17
g13
sg18
g13
sg19
g2144
sg21
g22
sbag7
(g8
g9
NtRp2392
(dp2393
g12
g13
sg14
S'Utopia'
p2394
sg16
I400
sg17
g13
sg18
g13
sg19
g2145
sg21
g22
sbag7
(g8
g9
NtRp2395
(dp2396
g12
g29
sg14
S'ITC Avant Garde Gothic'
p2397
sg16
I600
sg17
g13
sg18
g13
sg19
g2146
sg21
g22
sbag7
(g8
g9
NtRp2398
(dp2399
g12
g13
sg14
S'Courier'
p2400
sg16
I500
sg17
g13
sg18
g13
sg19
g2147
sg21
g22
sbag7
(g8
g9
NtRp2401
(dp2402
g12
g13
sg14
S'New Century Schoolbook'
p2403
sg16
I700
sg17
g13
sg18
g13
sg19
g2148
sg21
g22
sbag7
(g8
g9
NtRp2404
(dp2405
g12
g13
sg14
S'Courier'
p2406
sg16
I700
sg17
g13
sg18
g13
sg19
g2149
sg21
g22
sbag7
(g8
g9
NtRp2407
(dp2408
g12
g29
sg14
S'Courier'
p2409
sg16
I500
sg17
g13
sg18
g13
sg19
g2150
sg21
g22
sbag7
(g8
g9
NtRp2410
(dp2411
g12
g13
sg14
S'Helvetica'
p2412
sg16
I500
sg17
g13
sg18
g13
sg19
g2151
sg21
g22
sbag7
(g8
g9
NtRp2413
(dp2414
g12
g13
sg14
S'Computer Modern'
p2415
sg16
I500
sg17
g13
sg18
g13
sg19
g2152
sg21
g22
sbag7
(g8
g9
NtRp2416
(dp2417
g12
g13
sg14
S'Symbol'
p2418
sg16
I500
sg17
g13
sg18
g13
sg19
g2153
sg21
g22
sbag7
(g8
g9
NtRp2419
(dp2420
g12
g13
sg14
S'Helvetica'
p2421
sg16
I500
sg17
g184
sg18
g13
sg19
g2154
sg21
g22
sbag7
(g8
g9
NtRp2422
(dp2423
g12
g29
sg14
S'Helvetica'
p2424
sg16
I500
sg17
g13
sg18
g13
sg19
g2155
sg21
g22
sbag7
(g8
g9
NtRp2425
(dp2426
g12
g13
sg14
S'Times'
p2427
sg16
I500
sg17
g13
sg18
g13
sg19
g2156
sg21
g22
sbag7
(g8
g9
NtRp2428
(dp2429
g12
g29
sg14
S'Palatino'
p2430
sg16
I700
sg17
g13
sg18
g13
sg19
g2157
sg21
g22
sbag7
(g8
g9
NtRp2431
(dp2432
g12
g13
sg14
S'Helvetica'
p2433
sg16
I700
sg17
g184
sg18
g13
sg19
g2158
sg21
g22
sbag7
(g8
g9
NtRp2434
(dp2435
g12
g29
sg14
S'Computer Modern'
p2436
sg16
I500
sg17
g13
sg18
g13
sg19
g2159
sg21
g22
sbag7
(g8
g9
NtRp2437
(dp2438
g12
g13
sg14
S'ITC Avant Garde Gothic'
p2439
sg16
I400
sg17
g13
sg18
g13
sg19
g2160
sg21
g22
sbag7
(g8
g9
NtRp2440
(dp2441
g12
g29
sg14
S'Courier'
p2442
sg16
I700
sg17
g13
sg18
g13
sg19
g2161
sg21
g22
sbag7
(g8
g9
NtRp2443
(dp2444
g12
g13
sg14
S'Utopia'
p2445
sg16
I700
sg17
g13
sg18
g13
sg19
g2162
sg21
g22
sbag7
(g8
g9
NtRp2446
(dp2447
g12
g29
sg14
S'Computer Modern'
p2448
sg16
I500
sg17
g13
sg18
g13
sg19
g2163
sg21
g22
sbag7
(g8
g9
NtRp2449
(dp2450
g12
g13
sg14
S'Helvetica'
p2451
sg16
I200
sg17
g13
sg18
g13
sg19
g2164
sg21
g22
sbag7
(g8
g9
NtRp2452
(dp2453
g12
g29
sg14
S'ITC Bookman'
p2454
sg16
I600
sg17
g13
sg18
g13
sg19
g2165
sg21
g22
sbag7
(g8
g9
NtRp2455
(dp2456
g12
g29
sg14
S'Helvetica'
p2457
sg16
I700
sg17
g13
sg18
g13
sg19
g2166
sg21
g22
sbag7
(g8
g9
NtRp2458
(dp2459
g12
g13
sg14
S'Computer Modern'
p2460
sg16
I500
sg17
g13
sg18
g13
sg19
g2167
sg21
g22
sbag7
(g8
g9
NtRp2461
(dp2462
g12
g13
sg14
S'Times'
p2463
sg16
I700
sg17
g13
sg18
g13
sg19
g2168
sg21
g22
sbag7
(g8
g9
NtRp2464
(dp2465
g12
g13
sg14
S'Symbol'
p2466
sg16
I500
sg17
g13
sg18
g13
sg19
g2169
sg21
g22
sbag7
(g8
g9
NtRp2467
(dp2468
g12
g29
sg14
S'Helvetica'
p2469
sg16
I200
sg17
g13
sg18
g13
sg19
g2170
sg21
g22
sbag7
(g8
g9
NtRp2470
(dp2471
g12
g13
sg14
S'Helvetica'
p2472
sg16
I700
sg17
g13
sg18
g13
sg19
g2171
sg21
g22
sbag7
(g8
g9
NtRp2473
(dp2474
g12
g13
sg14
S'ITC Zapf Dingbats'
p2475
sg16
I500
sg17
g13
sg18
g13
sg19
g2172
sg21
g22
sbag7
(g8
g9
NtRp2476
(dp2477
g12
g29
sg14
S'Times'
p2478
sg16
I500
sg17
g13
sg18
g13
sg19
g2173
sg21
g22
sbag7
(g8
g9
NtRp2479
(dp2480
g12
g13
sg14
S'Palatino'
p2481
sg16
I500
sg17
g13
sg18
g13
sg19
g2174
sg21
g22
sbag7
(g8
g9
NtRp2482
(dp2483
g12
g13
sg14
S'ITC Bookman'
p2484
sg16
I200
sg17
g13
sg18
g13
sg19
g2175
sg21
g22
sbag7
(g8
g9
NtRp2485
(dp2486
g12
g29
sg14
S'New Century Schoolbook'
p2487
sg16
I700
sg17
g13
sg18
g13
sg19
g2176
sg21
g22
sbag7
(g8
g9
NtRp2488
(dp2489
g12
g13
sg14
S'ZapfDingbats'
p2490
sg16
I500
sg17
g13
sg18
g13
sg19
g2177
sg21
g22
sbag7
(g8
g9
NtRp2491
(dp2492
g12
g13
sg14
S'Times'
p2493
sg16
I700
sg17
g13
sg18
g13
sg19
g2178
sg21
g22
sbag7
(g8
g9
NtRp2494
(dp2495
g12
g13
sg14
S'Helvetica'
p2496
sg16
I500
sg17
g13
sg18
g13
sg19
g2179
sg21
g22
sbag7
(g8
g9
NtRp2497
(dp2498
g12
g29
sg14
S'Palatino'
p2499
sg16
I500
sg17
g13
sg18
g13
sg19
g2180
sg21
g22
sbag7
(g8
g9
NtRp2500
(dp2501
g12
g29
sg14
S'Times'
p2502
sg16
I700
sg17
g13
sg18
g13
sg19
g2181
sg21
g22
sbag7
(g8
g9
NtRp2503
(dp2504
g12
g29
sg14
S'ITC Bookman'
p2505
sg16
I200
sg17
g13
sg18
g13
sg19
g2182
sg21
g22
sbag7
(g8
g9
NtRp2506
(dp2507
g12
g29
sg14
S'Courier'
p2508
sg16
I500
sg17
g13
sg18
g13
sg19
g2183
sg21
g22
sbag7
(g8
g9
NtRp2509
(dp2510
g12
g13
sg14
S'Courier'
p2511
sg16
I500
sg17
g13
sg18
g13
sg19
g2184
sg21
g22
sbag7
(g8
g9
NtRp2512
(dp2513
g12
g13
sg14
S'Courier'
p2514
sg16
I700
sg17
g13
sg18
g13
sg19
g2185
sg21
g22
sbag7
(g8
g9
NtRp2515
(dp2516
g12
g13
sg14
S'ITC Avant Garde Gothic'
p2517
sg16
I600
sg17
g13
sg18
g13
sg19
g2186
sg21
g22
sbag7
(g8
g9
NtRp2518
(dp2519
g12
g13
sg14
S'New Century Schoolbook'
p2520
sg16
I500
sg17
g13
sg18
g13
sg19
g2187
sg21
g22
sbag7
(g8
g9
NtRp2521
(dp2522
g12
g29
sg14
S'Helvetica'
p2523
sg16
I700
sg17
g184
sg18
g13
sg19
g2188
sg21
g22
sbag7
(g8
g9
NtRp2524
(dp2525
g12
g29
sg14
S'Times'
p2526
sg16
I500
sg17
g13
sg18
g13
sg19
g2189
sg21
g22
sbag7
(g8
g9
NtRp2527
(dp2528
g12
g13
sg14
S'Computer Modern'
p2529
sg16
I500
sg17
g13
sg18
g13
sg19
g2190
sg21
g22
sbag7
(g8
g9
NtRp2530
(dp2531
g12
g13
sg14
S'Times'
p2532
sg16
I500
sg17
g13
sg18
g13
sg19
g2191
sg21
g22
sbag7
(g8
g9
NtRp2533
(dp2534
g12
g29
sg14
S'Utopia'
p2535
sg16
I400
sg17
g13
sg18
g13
sg19
g2192
sg21
g22
sbag7
(g8
g9
NtRp2536
(dp2537
g12
g29
sg14
S'Helvetica'
p2538
sg16
I500
sg17
g13
sg18
g13
sg19
g2193
sg21
g22
sbag7
(g8
g9
NtRp2539
(dp2540
g12
g29
sg14
S'New Century Schoolbook'
p2541
sg16
I500
sg17
g13
sg18
g13
sg19
g2194
sg21
g22
sbag7
(g8
g9
NtRp2542
(dp2543
g12
g13
sg14
S'LMMono10'
p2544
sg16
I400
sg17
g13
sg18
g13
sg19
g2195
sg21
g22
sbag7
(g8
g9
NtRp2545
(dp2546
g12
g29
sg14
S'TeXGyreSchola'
p2547
sg16
I400
sg17
g13
sg18
g13
sg19
g2196
sg21
g22
sbag7
(g8
g9
NtRp2548
(dp2549
g12
g29
sg14
S'LMSansQuot8'
p2550
sg16
I400
sg17
g13
sg18
g13
sg19
g2197
sg21
g22
sbag7
(g8
g9
NtRp2551
(dp2552
g12
g29
sg14
S'Nimbus Sans L'
p2553
sg16
I700
sg17
g184
sg18
g13
sg19
g2198
sg21
g22
sbag7
(g8
g9
NtRp2554
(dp2555
g12
g13
sg14
S'URW Bookman L'
p2556
sg16
I700
sg17
g13
sg18
g13
sg19
g2199
sg21
g22
sbag7
(g8
g9
NtRp2557
(dp2558
g12
g29
sg14
S'LMRomanSlant10'
p2559
sg16
I700
sg17
g13
sg18
g13
sg19
g2200
sg21
g22
sbag7
(g8
g9
NtRp2560
(dp2561
g12
g29
sg14
S'Century Schoolbook L'
p2562
sg16
I700
sg17
g13
sg18
g13
sg19
g2201
sg21
g22
sbag7
(g8
g9
NtRp2563
(dp2564
g12
g29
sg14
S'URW Palladio L'
p2565
sg16
I700
sg17
g13
sg18
g13
sg19
g2202
sg21
g22
sbag7
(g8
g9
NtRp2566
(dp2567
g12
g29
sg14
S'Nimbus Mono L'
p2568
sg16
I700
sg17
g13
sg18
g13
sg19
g2203
sg21
g22
sbag7
(g8
g9
NtRp2569
(dp2570
g12
g13
sg14
S'LMMonoLtCond10'
p2571
sg16
I200
sg17
g184
sg18
g13
sg19
g2204
sg21
g22
sbag7
(g8
g9
NtRp2572
(dp2573
g12
g13
sg14
S'Nimbus Sans L'
p2574
sg16
I700
sg17
g13
sg18
g13
sg19
g2205
sg21
g22
sbag7
(g8
g9
NtRp2575
(dp2576
g12
g13
sg14
S'LMMonoLt10'
p2577
sg16
I700
sg17
g13
sg18
g13
sg19
g2206
sg21
g22
sbag7
(g8
g9
NtRp2578
(dp2579
g12
g13
sg14
S'TeXGyreBonum'
p2580
sg16
I400
sg17
g13
sg18
g13
sg19
g2207
sg21
g22
sbag7
(g8
g9
NtRp2581
(dp2582
g12
g13
sg14
S'LMRomanDunh10'
p2583
sg16
I400
sg17
g13
sg18
g13
sg19
g2208
sg21
g22
sbag7
(g8
g9
NtRp2584
(dp2585
g12
g13
sg14
S'Nimbus Sans L'
p2586
sg16
I400
sg17
g13
sg18
g13
sg19
g2209
sg21
g22
sbag7
(g8
g9
NtRp2587
(dp2588
g12
g29
sg14
S'Nimbus Mono L'
p2589
sg16
I400
sg17
g13
sg18
g13
sg19
g2210
sg21
g22
sbag7
(g8
g9
NtRp2590
(dp2591
g12
g29
sg14
S'URW Bookman L'
p2592
sg16
I400
sg17
g13
sg18
g13
sg19
g2211
sg21
g22
sbag7
(g8
g9
NtRp2593
(dp2594
g12
g29
sg14
S'Nimbus Sans L'
p2595
sg16
I700
sg17
g184
sg18
g13
sg19
g2212
sg21
g22
sbag7
(g8
g9
NtRp2596
(dp2597
g12
g13
sg14
S'URW Gothic L'
p2598
sg16
I400
sg17
g13
sg18
g13
sg19
g2213
sg21
g22
sbag7
(g8
g9
NtRp2599
(dp2600
g12
g29
sg14
S'Nimbus Sans L'
p2601
sg16
I400
sg17
g13
sg18
g13
sg19
g2214
sg21
g22
sbag7
(g8
g9
NtRp2602
(dp2603
g12
g13
sg14
S'URW Gothic L'
p2604
sg16
I600
sg17
g13
sg18
g13
sg19
g2215
sg21
g22
sbag7
(g8
g9
NtRp2605
(dp2606
g12
g13
sg14
S'TeXGyreCursor'
p2607
sg16
I400
sg17
g13
sg18
g13
sg19
g2216
sg21
g22
sbag7
(g8
g9
NtRp2608
(dp2609
g12
g29
sg14
S'URW Bookman L'
p2610
sg16
I700
sg17
g13
sg18
g13
sg19
g2217
sg21
g22
sbag7
(g8
g9
NtRp2611
(dp2612
g12
g13
sg14
S'Century Schoolbook L'
p2613
sg16
I700
sg17
g13
sg18
g13
sg19
g2219
sg21
g22
sbag7
(g8
g9
NtRp2614
(dp2615
g12
g13
sg14
S'Century Schoolbook L'
p2616
sg16
I500
sg17
g13
sg18
g13
sg19
g2220
sg21
g22
sbag7
(g8
g9
NtRp2617
(dp2618
g12
g13
sg14
S'TeXGyreHerosCondensed'
p2619
sg16
I700
sg17
g184
sg18
g13
sg19
g2222
sg21
g22
sbag7
(g8
g9
NtRp2620
(dp2621
g12
g13
sg14
S'TeXGyreTermes'
p2622
sg16
I700
sg17
g13
sg18
g13
sg19
g2223
sg21
g22
sbag7
(g8
g9
NtRp2623
(dp2624
g12
g29
sg14
S'LMMonoPropLt10'
p2625
sg16
I200
sg17
g13
sg18
g13
sg19
g2224
sg21
g22
sbag7
(g8
g9
NtRp2626
(dp2627
g12
g29
sg14
S'LMMonoCaps10'
p2628
sg16
I400
sg17
g13
sg18
g13
sg19
g2225
sg21
g22
sbag7
(g8
g9
NtRp2629
(dp2630
g12
g29
sg14
S'LMMono10'
p2631
sg16
I400
sg17
g13
sg18
g13
sg19
g2226
sg21
g22
sbag7
(g8
g9
NtRp2632
(dp2633
g12
g13
sg14
S'Courier 10 Pitch'
p2634
sg16
I400
sg17
g13
sg18
g13
sg19
g2227
sg21
g22
sbag7
(g8
g9
NtRp2635
(dp2636
g12
g29
sg14
S'Nimbus Roman No9 L'
p2637
sg16
I700
sg17
g13
sg18
g13
sg19
g2228
sg21
g22
sbag7
(g8
g9
NtRp2638
(dp2639
g12
g29
sg14
S'Nimbus Sans L'
p2640
sg16
I700
sg17
g13
sg18
g13
sg19
g2229
sg21
g22
sbag7
(g8
g9
NtRp2641
(dp2642
g12
g29
sg14
S'TeXGyreHeros'
p2643
sg16
I700
sg17
g13
sg18
g13
sg19
g2230
sg21
g22
sbag7
(g8
g9
NtRp2644
(dp2645
g12
g13
sg14
S'TeXGyreSchola'
p2646
sg16
I700
sg17
g13
sg18
g13
sg19
g2231
sg21
g22
sbag7
(g8
g9
NtRp2647
(dp2648
g12
g13
sg14
S'LMRoman10'
p2649
sg16
I700
sg17
g13
sg18
g13
sg19
g2232
sg21
g22
sbag7
(g8
g9
NtRp2650
(dp2651
g12
g13
sg14
S'Dingbats'
p2652
sg16
I400
sg17
g13
sg18
g13
sg19
g2233
sg21
g22
sbag7
(g8
g9
NtRp2653
(dp2654
g12
g29
sg14
S'LMSansDemiCond10'
p2655
sg16
I600
sg17
g184
sg18
g13
sg19
g2234
sg21
g22
sbag7
(g8
g9
NtRp2656
(dp2657
g12
g13
sg14
S'LMSansQuot8'
p2658
sg16
I700
sg17
g13
sg18
g13
sg19
g2235
sg21
g22
sbag7
(g8
g9
NtRp2659
(dp2660
g12
g13
sg14
S'TeXGyreHeros'
p2661
sg16
I700
sg17
g13
sg18
g13
sg19
g2236
sg21
g22
sbag7
(g8
g9
NtRp2662
(dp2663
g12
g13
sg14
S'LMRomanDemi10'
p2664
sg16
I600
sg17
g13
sg18
g13
sg19
g2237
sg21
g22
sbag7
(g8
g9
NtRp2665
(dp2666
g12
g13
sg14
S'Nimbus Mono L'
p2667
sg16
I400
sg17
g13
sg18
g13
sg19
g2238
sg21
g22
sbag7
(g8
g9
NtRp2668
(dp2669
g12
g13
sg14
S'Bitstream Charter'
p2670
sg16
I400
sg17
g13
sg18
g13
sg19
g2239
sg21
g22
sbag7
(g8
g9
NtRp2671
(dp2672
g12
g29
sg14
S'URW Chancery L'
p2673
sg16
I500
sg17
g13
sg18
g13
sg19
g2240
sg21
g22
sbag7
(g8
g9
NtRp2674
(dp2675
g12
g13
sg14
S'TeXGyreHeros'
p2676
sg16
I400
sg17
g13
sg18
g13
sg19
g2241
sg21
g22
sbag7
(g8
g9
NtRp2677
(dp2678
g12
g29
sg14
S'LMRoman10'
p2679
sg16
I700
sg17
g13
sg18
g13
sg19
g2242
sg21
g22
sbag7
(g8
g9
NtRp2680
(dp2681
g12
g29
sg14
S'URW Chancery L'
p2682
sg16
I500
sg17
g13
sg18
g13
sg19
g2245
sg21
g22
sbag7
(g8
g9
NtRp2683
(dp2684
g12
g29
sg14
S'LMRomanSlant10'
p2685
sg16
I400
sg17
g13
sg18
g13
sg19
g2246
sg21
g22
sbag7
(g8
g9
NtRp2686
(dp2687
g12
g13
sg14
S'URW Palladio L'
p2688
sg16
I700
sg17
g13
sg18
g13
sg19
g2247
sg21
g22
sbag7
(g8
g9
NtRp2689
(dp2690
g12
g13
sg14
S'TeXGyrePagella'
p2691
sg16
I400
sg17
g13
sg18
g13
sg19
g2248
sg21
g22
sbag7
(g8
g9
NtRp2692
(dp2693
g12
g29
sg14
S'Nimbus Sans L'
p2694
sg16
I700
sg17
g13
sg18
g13
sg19
g2249
sg21
g22
sbag7
(g8
g9
NtRp2695
(dp2696
g12
g13
sg14
S'TeXGyreSchola'
p2697
sg16
I400
sg17
g13
sg18
g13
sg19
g2250
sg21
g22
sbag7
(g8
g9
NtRp2698
(dp2699
g12
g29
sg14
S'URW Palladio L'
p2700
sg16
I400
sg17
g13
sg18
g13
sg19
g2251
sg21
g22
sbag7
(g8
g9
NtRp2701
(dp2702
g12
g29
sg14
S'Nimbus Roman No9 L'
p2703
sg16
I400
sg17
g13
sg18
g13
sg19
g2252
sg21
g22
sbag7
(g8
g9
NtRp2704
(dp2705
g12
g13
sg14
S'URW Gothic L'
p2706
sg16
I400
sg17
g13
sg18
g13
sg19
g2253
sg21
g22
sbag7
(g8
g9
NtRp2707
(dp2708
g12
g13
sg14
S'Courier 10 Pitch'
p2709
sg16
I700
sg17
g13
sg18
g13
sg19
g2254
sg21
g22
sbag7
(g8
g9
NtRp2710
(dp2711
g12
g13
sg14
S'Nimbus Mono L'
p2712
sg16
I700
sg17
g13
sg18
g13
sg19
g2255
sg21
g22
sbag7
(g8
g9
NtRp2713
(dp2714
g12
g29
sg14
S'TeXGyreAdventor'
p2715
sg16
I400
sg17
g13
sg18
g13
sg19
g2256
sg21
g22
sbag7
(g8
g9
NtRp2716
(dp2717
g12
g29
sg14
S'TeXGyreBonum'
p2718
sg16
I700
sg17
g13
sg18
g13
sg19
g2257
sg21
g22
sbag7
(g8
g9
NtRp2719
(dp2720
g12
g29
sg14
S'Bitstream Charter'
p2721
sg16
I700
sg17
g13
sg18
g13
sg19
g2258
sg21
g22
sbag7
(g8
g9
NtRp2722
(dp2723
g12
g29
sg14
S'Century Schoolbook L'
p2724
sg16
I700
sg17
g13
sg18
g13
sg19
g2259
sg21
g22
sbag7
(g8
g9
NtRp2725
(dp2726
g12
g13
sg14
S'LMRomanCaps10'
p2727
sg16
I400
sg17
g13
sg18
g13
sg19
g2260
sg21
g22
sbag7
(g8
g9
NtRp2728
(dp2729
g12
g13
sg14
S'URW Bookman L'
p2730
sg16
I400
sg17
g13
sg18
g13
sg19
g2261
sg21
g22
sbag7
(g8
g9
NtRp2731
(dp2732
g12
g29
sg14
S'TeXGyreCursor'
p2733
sg16
I700
sg17
g13
sg18
g13
sg19
g2262
sg21
g22
sbag7
(g8
g9
NtRp2734
(dp2735
g12
g13
sg14
S'TeXGyreCursor'
p2736
sg16
I700
sg17
g13
sg18
g13
sg19
g2263
sg21
g22
sbag7
(g8
g9
NtRp2737
(dp2738
g12
g29
sg14
S'LMSansQuot8'
p2739
sg16
I700
sg17
g13
sg18
g13
sg19
g2264
sg21
g22
sbag7
(g8
g9
NtRp2740
(dp2741
g12
g13
sg14
S'URW Palladio L'
p2742
sg16
I500
sg17
g13
sg18
g13
sg19
g2265
sg21
g22
sbag7
(g8
g9
NtRp2743
(dp2744
g12
g29
sg14
S'URW Bookman L'
p2745
sg16
I400
sg17
g13
sg18
g13
sg19
g2266
sg21
g22
sbag7
(g8
g9
NtRp2746
(dp2747
g12
g13
sg14
S'LMMonoPropLt10'
p2748
sg16
I700
sg17
g13
sg18
g13
sg19
g2267
sg21
g22
sbag7
(g8
g9
NtRp2749
(dp2750
g12
g29
sg14
S'Nimbus Roman No9 L'
p2751
sg16
I400
sg17
g13
sg18
g13
sg19
g2268
sg21
g22
sbag7
(g8
g9
NtRp2752
(dp2753
g12
g29
sg14
S'TeXGyreHeros'
p2754
sg16
I400
sg17
g13
sg18
g13
sg19
g2269
sg21
g22
sbag7
(g8
g9
NtRp2755
(dp2756
g12
g29
sg14
S'LMMonoLt10'
p2757
sg16
I200
sg17
g13
sg18
g13
sg19
g2270
sg21
g22
sbag7
(g8
g9
NtRp2758
(dp2759
g12
g13
sg14
S'LMMonoPropLt10'
p2760
sg16
I200
sg17
g13
sg18
g13
sg19
g2271
sg21
g22
sbag7
(g8
g9
NtRp2761
(dp2762
g12
g13
sg14
S'Nimbus Roman No9 L'
p2763
sg16
I400
sg17
g13
sg18
g13
sg19
g2272
sg21
g22
sbag7
(g8
g9
NtRp2764
(dp2765
g12
g29
sg14
S'LMSans10'
p2766
sg16
I400
sg17
g13
sg18
g13
sg19
g2273
sg21
g22
sbag7
(g8
g9
NtRp2767
(dp2768
g12
g13
sg14
S'Standard Symbols L'
p2769
sg16
I400
sg17
g13
sg18
g13
sg19
g2274
sg21
g22
sbag7
(g8
g9
NtRp2770
(dp2771
g12
g13
sg14
S'Nimbus Roman No9 L'
p2772
sg16
I700
sg17
g13
sg18
g13
sg19
g2275
sg21
g22
sbag7
(g8
g9
NtRp2773
(dp2774
g12
g29
sg14
S'URW Palladio L'
p2775
sg16
I700
sg17
g13
sg18
g13
sg19
g2276
sg21
g22
sbag7
(g8
g9
NtRp2776
(dp2777
g12
g29
sg14
S'TeXGyreTermes'
p2778
sg16
I400
sg17
g13
sg18
g13
sg19
g2277
sg21
g22
sbag7
(g8
g9
NtRp2779
(dp2780
g12
g13
sg14
S'Century Schoolbook L'
p2781
sg16
I500
sg17
g13
sg18
g13
sg19
g2278
sg21
g22
sbag7
(g8
g9
NtRp2782
(dp2783
g12
g13
sg14
S'TeXGyreBonum'
p2784
sg16
I700
sg17
g13
sg18
g13
sg19
g2279
sg21
g22
sbag7
(g8
g9
NtRp2785
(dp2786
g12
g29
sg14
S'Nimbus Sans L'
p2787
sg16
I400
sg17
g184
sg18
g13
sg19
g2281
sg21
g22
sbag7
(g8
g9
NtRp2788
(dp2789
g12
g13
sg14
S'TeXGyreTermes'
p2790
sg16
I400
sg17
g13
sg18
g13
sg19
g2282
sg21
g22
sbag7
(g8
g9
NtRp2791
(dp2792
g12
g13
sg14
S'LMMonoCaps10'
p2793
sg16
I400
sg17
g13
sg18
g13
sg19
g2283
sg21
g22
sbag7
(g8
g9
NtRp2794
(dp2795
g12
g29
sg14
S'LMRomanCaps10'
p2796
sg16
I400
sg17
g13
sg18
g13
sg19
g2284
sg21
g22
sbag7
(g8
g9
NtRp2797
(dp2798
g12
g13
sg14
S'TeXGyreAdventor'
p2799
sg16
I700
sg17
g13
sg18
g13
sg19
g2285
sg21
g22
sbag7
(g8
g9
NtRp2800
(dp2801
g12
g29
sg14
S'Bitstream Charter'
p2802
sg16
I700
sg17
g13
sg18
g13
sg19
g2286
sg21
g22
sbag7
(g8
g9
NtRp2803
(dp2804
g12
g29
sg14
S'LMMonoProp10'
p2805
sg16
I400
sg17
g13
sg18
g13
sg19
g2287
sg21
g22
sbag7
(g8
g9
NtRp2806
(dp2807
g12
g13
sg14
S'LMSans10'
p2808
sg16
I400
sg17
g13
sg18
g13
sg19
g2289
sg21
g22
sbag7
(g8
g9
NtRp2809
(dp2810
g12
g13
sg14
S'LMMonoProp10'
p2811
sg16
I400
sg17
g13
sg18
g13
sg19
g2290
sg21
g22
sbag7
(g8
g9
NtRp2812
(dp2813
g12
g29
sg14
S'URW Bookman L'
p2814
sg16
I700
sg17
g13
sg18
g13
sg19
g2291
sg21
g22
sbag7
(g8
g9
NtRp2815
(dp2816
g12
g29
sg14
S'LMRomanDunh10'
p2817
sg16
I400
sg17
g13
sg18
g13
sg19
g2292
sg21
g22
sbag7
(g8
g9
NtRp2818
(dp2819
g12
g29
sg14
S'TeXGyreTermes'
p2820
sg16
I700
sg17
g13
sg18
g13
sg19
g2293
sg21
g22
sbag7
(g8
g9
NtRp2821
(dp2822
g12
g29
sg14
S'TeXGyreSchola'
p2823
sg16
I400
sg17
g13
sg18
g13
sg19
g2294
sg21
g22
sbag7
(g8
g9
NtRp2824
(dp2825
g12
g13
sg14
S'Nimbus Mono L'
p2826
sg16
I700
sg17
g13
sg18
g13
sg19
g2296
sg21
g22
sbag7
(g8
g9
NtRp2827
(dp2828
g12
g29
sg14
S'TeXGyreHerosCondensed'
p2829
sg16
I700
sg17
g184
sg18
g13
sg19
g2298
sg21
g22
sbag7
(g8
g9
NtRp2830
(dp2831
g12
g29
sg14
S'URW Gothic L'
p2832
sg16
I400
sg17
g13
sg18
g13
sg19
g2299
sg21
g22
sbag7
(g8
g9
NtRp2833
(dp2834
g12
g13
sg14
S'Nimbus Sans L'
p2835
sg16
I400
sg17
g184
sg18
g13
sg19
g2300
sg21
g22
sbag7
(g8
g9
NtRp2836
(dp2837
g12
g13
sg14
S'URW Gothic L'
p2838
sg16
I600
sg17
g13
sg18
g13
sg19
g2301
sg21
g22
sbag7
(g8
g9
NtRp2839
(dp2840
g12
g29
sg14
S'LMRoman10'
p2841
sg16
I400
sg17
g13
sg18
g13
sg19
g2302
sg21
g22
sbag7
(g8
g9
NtRp2842
(dp2843
g12
g13
sg14
S'LMRoman10'
p2844
sg16
I400
sg17
g13
sg18
g13
sg19
g2304
sg21
g22
sbag7
(g8
g9
NtRp2845
(dp2846
g12
g29
sg14
S'Bitstream Charter'
p2847
sg16
I400
sg17
g13
sg18
g13
sg19
g2305
sg21
g22
sbag7
(g8
g9
NtRp2848
(dp2849
g12
g29
sg14
S'Century Schoolbook L'
p2850
sg16
I400
sg17
g13
sg18
g13
sg19
g2306
sg21
g22
sbag7
(g8
g9
NtRp2851
(dp2852
g12
g13
sg14
S'LMMonoLt10'
p2853
sg16
I200
sg17
g13
sg18
g13
sg19
g2307
sg21
g22
sbag7
(g8
g9
NtRp2854
(dp2855
g12
g13
sg14
S'Standard Symbols L'
p2856
sg16
I400
sg17
g13
sg18
g13
sg19
g2308
sg21
g22
sbag7
(g8
g9
NtRp2857
(dp2858
g12
g13
sg14
S'Nimbus Sans L'
p2859
sg16
I400
sg17
g13
sg18
g13
sg19
g2309
sg21
g22
sbag7
(g8
g9
NtRp2860
(dp2861
g12
g29
sg14
S'TeXGyrePagella'
p2862
sg16
I400
sg17
g13
sg18
g13
sg19
g2310
sg21
g22
sbag7
(g8
g9
NtRp2863
(dp2864
g12
g29
sg14
S'TeXGyreAdventor'
p2865
sg16
I700
sg17
g13
sg18
g13
sg19
g2311
sg21
g22
sbag7
(g8
g9
NtRp2866
(dp2867
g12
g13
sg14
S'TeXGyreHerosCondensed'
p2868
sg16
I400
sg17
g184
sg18
g13
sg19
g2312
sg21
g22
sbag7
(g8
g9
NtRp2869
(dp2870
g12
g29
sg14
S'LMMonoLtCond10'
p2871
sg16
I200
sg17
g184
sg18
g13
sg19
g2313
sg21
g22
sbag7
(g8
g9
NtRp2872
(dp2873
g12
g13
sg14
S'Century Schoolbook L'
p2874
sg16
I700
sg17
g13
sg18
g13
sg19
g2314
sg21
g22
sbag7
(g8
g9
NtRp2875
(dp2876
g12
g13
sg14
S'TeXGyrePagella'
p2877
sg16
I700
sg17
g13
sg18
g13
sg19
g2315
sg21
g22
sbag7
(g8
g9
NtRp2878
(dp2879
g12
g13
sg14
S'Nimbus Sans L'
p2880
sg16
I700
sg17
g184
sg18
g13
sg19
g2316
sg21
g22
sbag7
(g8
g9
NtRp2881
(dp2882
g12
g13
sg14
S'Nimbus Mono L'
p2883
sg16
I400
sg17
g13
sg18
g13
sg19
g2317
sg21
g22
sbag7
(g8
g9
NtRp2884
(dp2885
g12
g29
sg14
S'URW Gothic L'
p2886
sg16
I400
sg17
g13
sg18
g13
sg19
g2318
sg21
g22
sbag7
(g8
g9
NtRp2887
(dp2888
g12
g29
sg14
S'LMMonoPropLt10'
p2889
sg16
I700
sg17
g13
sg18
g13
sg19
g2319
sg21
g22
sbag7
(g8
g9
NtRp2890
(dp2891
g12
g29
sg14
S'Bitstream Charter'
p2892
sg16
I400
sg17
g13
sg18
g13
sg19
g2320
sg21
g22
sbag7
(g8
g9
NtRp2893
(dp2894
g12
g13
sg14
S'Bitstream Charter'
p2895
sg16
I700
sg17
g13
sg18
g13
sg19
g2321
sg21
g22
sbag7
(g8
g9
NtRp2896
(dp2897
g12
g29
sg14
S'Century Schoolbook L'
p2898
sg16
I400
sg17
g13
sg18
g13
sg19
g2322
sg21
g22
sbag7
(g8
g9
NtRp2899
(dp2900
g12
g13
sg14
S'URW Palladio L'
p2901
sg16
I700
sg17
g13
sg18
g13
sg19
g2323
sg21
g22
sbag7
(g8
g9
NtRp2902
(dp2903
g12
g29
sg14
S'TeXGyreCursor'
p2904
sg16
I400
sg17
g13
sg18
g13
sg19
g2324
sg21
g22
sbag7
(g8
g9
NtRp2905
(dp2906
g12
g13
sg14
S'LMSans10'
p2907
sg16
I700
sg17
g13
sg18
g13
sg19
g2325
sg21
g22
sbag7
(g8
g9
NtRp2908
(dp2909
g12
g29
sg14
S'Nimbus Mono L'
p2910
sg16
I700
sg17
g13
sg18
g13
sg19
g2326
sg21
g22
sbag7
(g8
g9
NtRp2911
(dp2912
g12
g29
sg14
S'Nimbus Sans L'
p2913
sg16
I400
sg17
g184
sg18
g13
sg19
g2327
sg21
g22
sbag7
(g8
g9
NtRp2914
(dp2915
g12
g13
sg14
S'URW Bookman L'
p2916
sg16
I700
sg17
g13
sg18
g13
sg19
g2328
sg21
g22
sbag7
(g8
g9
NtRp2917
(dp2918
g12
g29
sg14
S'Nimbus Roman No9 L'
p2919
sg16
I700
sg17
g13
sg18
g13
sg19
g2329
sg21
g22
sbag7
(g8
g9
NtRp2920
(dp2921
g12
g13
sg14
S'URW Palladio L'
p2922
sg16
I500
sg17
g13
sg18
g13
sg19
g2330
sg21
g22
sbag7
(g8
g9
NtRp2923
(dp2924
g12
g13
sg14
S'Nimbus Sans L'
p2925
sg16
I700
sg17
g184
sg18
g13
sg19
g2331
sg21
g22
sbag7
(g8
g9
NtRp2926
(dp2927
g12
g29
sg14
S'Courier 10 Pitch'
p2928
sg16
I400
sg17
g13
sg18
g13
sg19
g2332
sg21
g22
sbag7
(g8
g9
NtRp2929
(dp2930
g12
g13
sg14
S'Nimbus Roman No9 L'
p2931
sg16
I700
sg17
g13
sg18
g13
sg19
g2333
sg21
g22
sbag7
(g8
g9
NtRp2932
(dp2933
g12
g13
sg14
S'Nimbus Sans L'
p2934
sg16
I700
sg17
g13
sg18
g13
sg19
g2334
sg21
g22
sbag7
(g8
g9
NtRp2935
(dp2936
g12
g13
sg14
S'LMSansQuot8'
p2937
sg16
I400
sg17
g13
sg18
g13
sg19
g2335
sg21
g22
sbag7
(g8
g9
NtRp2938
(dp2939
g12
g29
sg14
S'LMSans10'
p2940
sg16
I700
sg17
g13
sg18
g13
sg19
g2336
sg21
g22
sbag7
(g8
g9
NtRp2941
(dp2942
g12
g13
sg14
S'TeXGyreAdventor'
p2943
sg16
I400
sg17
g13
sg18
g13
sg19
g2338
sg21
g22
sbag7
(g8
g9
NtRp2944
(dp2945
g12
g13
sg14
S'Nimbus Sans L'
p2946
sg16
I400
sg17
g184
sg18
g13
sg19
g2339
sg21
g22
sbag7
(g8
g9
NtRp2947
(dp2948
g12
g13
sg14
S'Nimbus Roman No9 L'
p2949
sg16
I400
sg17
g13
sg18
g13
sg19
g2340
sg21
g22
sbag7
(g8
g9
NtRp2950
(dp2951
g12
g13
sg14
S'Bitstream Charter'
p2952
sg16
I400
sg17
g13
sg18
g13
sg19
g2341
sg21
g22
sbag7
(g8
g9
NtRp2953
(dp2954
g12
g29
sg14
S'Nimbus Sans L'
p2955
sg16
I400
sg17
g13
sg18
g13
sg19
g2342
sg21
g22
sbag7
(g8
g9
NtRp2956
(dp2957
g12
g13
sg14
S'URW Bookman L'
p2958
sg16
I400
sg17
g13
sg18
g13
sg19
g2343
sg21
g22
sbag7
(g8
g9
NtRp2959
(dp2960
g12
g29
sg14
S'LMMonoLt10'
p2961
sg16
I700
sg17
g13
sg18
g13
sg19
g2344
sg21
g22
sbag7
(g8
g9
NtRp2962
(dp2963
g12
g29
sg14
S'TeXGyreChorus'
p2964
sg16
I500
sg17
g13
sg18
g13
sg19
g2345
sg21
g22
sbag7
(g8
g9
NtRp2965
(dp2966
g12
g29
sg14
S'Courier 10 Pitch'
p2967
sg16
I700
sg17
g13
sg18
g13
sg19
g2346
sg21
g22
sbag7
(g8
g9
NtRp2968
(dp2969
g12
g29
sg14
S'LMRomanDemi10'
p2970
sg16
I600
sg17
g13
sg18
g13
sg19
g2347
sg21
g22
sbag7
(g8
g9
NtRp2971
(dp2972
g12
g29
sg14
S'URW Palladio L'
p2973
sg16
I400
sg17
g13
sg18
g13
sg19
g2348
sg21
g22
sbag7
(g8
g9
NtRp2974
(dp2975
g12
g29
sg14
S'TeXGyrePagella'
p2976
sg16
I700
sg17
g13
sg18
g13
sg19
g2349
sg21
g22
sbag7
(g8
g9
NtRp2977
(dp2978
g12
g29
sg14
S'URW Gothic L'
p2979
sg16
I600
sg17
g13
sg18
g13
sg19
g2350
sg21
g22
sbag7
(g8
g9
NtRp2980
(dp2981
g12
g13
sg14
S'LMSansDemiCond10'
p2982
sg16
I600
sg17
g184
sg18
g13
sg19
g2351
sg21
g22
sbag7
(g8
g9
NtRp2983
(dp2984
g12
g29
sg14
S'LMMonoSlant10'
p2985
sg16
I400
sg17
g13
sg18
g13
sg19
g2352
sg21
g22
sbag7
(g8
g9
NtRp2986
(dp2987
g12
g29
sg14
S'Nimbus Mono L'
p2988
sg16
I400
sg17
g13
sg18
g13
sg19
g2353
sg21
g22
sbag7
(g8
g9
NtRp2989
(dp2990
g12
g29
sg14
S'TeXGyreHerosCondensed'
p2991
sg16
I400
sg17
g184
sg18
g13
sg19
g2354
sg21
g22
sbag7
(g8
g9
NtRp2992
(dp2993
g12
g29
sg14
S'URW Gothic L'
p2994
sg16
I600
sg17
g13
sg18
g13
sg19
g2355
sg21
g22
sbag7
(g8
g9
NtRp2995
(dp2996
g12
g29
sg14
S'TeXGyreBonum'
p2997
sg16
I400
sg17
g13
sg18
g13
sg19
g2356
sg21
g22
sbag7
(g8
g9
NtRp2998
(dp2999
g12
g13
sg14
S'Dingbats'
p3000
sg16
I400
sg17
g13
sg18
g13
sg19
g2357
sg21
g22
sbag7
(g8
g9
NtRp3001
(dp3002
g12
g13
sg14
S'Bitstream Charter'
p3003
sg16
I700
sg17
g13
sg18
g13
sg19
g2358
sg21
g22
sbag7
(g8
g9
NtRp3004
(dp3005
g12
g13
sg14
S'LMRomanUnsl10'
p3006
sg16
I400
sg17
g13
sg18
g13
sg19
g2359
sg21
g22
sbasb.